{
  "symbols": [
    "??$?6GU?$char_traits@G@std@@@std@@YAAEAV?$basic_ostream@GU?$char_traits@G@std@@@0@AEAV10@PEBD@Z",
    "??$?6GU?$char_traits@G@std@@@std@@YAAEAV?$basic_ostream@GU?$char_traits@G@std@@@0@AEAV10@PEBG@Z",
    "??$?HDU?$char_traits@D@std@@V?$allocator@D@1@@std@@YA?AV?$basic_string@DU?$char_traits@D@std@@V?$allocator@D@2@@0@QEBD$$QEAV10@@Z",
    "??$?HGU?$char_traits@G@std@@V?$allocator@G@1@@std@@YA?AV?$basic_string@GU?$char_traits@G@std@@V?$allocator@G@2@@0@QEBG$$QEAV10@@Z",
    "??$AtlConvAllocMemory@D@ATL@@YAXPEAPEADHPEADH@Z",
    "??$WriteResultString@PEBD@details@wil@@YAPEAEPEAE0PEBDPEAPEBD@Z",
    "??$WriteResultString@PEBG@details@wil@@YAPEAEPEAE0PEBGPEAPEBG@Z",
    "??$_Destroy_range@V?$allocator@VFormDataMigrationItem@@@std@@@std@@YAXPEAVFormDataMigrationItem@@0AEAV?$allocator@VFormDataMigrationItem@@@0@@Z",
    "??$_Emplace_reallocate@AEBQEAVDataStore@@@?$vector@PEAVDataStore@@V?$allocator@PEAVDataStore@@@std@@@std@@QEAAPEAPEAVDataStore@@QEAPEAV2@AEBQEAV2@@Z",
    "??$_Emplace_reallocate@AEBVCookieMigrationItem@@@?$vector@VCookieMigrationItem@@V?$allocator@VCookieMigrationItem@@@std@@@std@@QEAAPEAVCookieMigrationItem@@QEAV2@AEBV2@@Z",
    "??$_Emplace_reallocate@AEBVFaviconImageMigrationItem@@@?$vector@VFaviconImageMigrationItem@@V?$allocator@VFaviconImageMigrationItem@@@std@@@std@@QEAAPEAVFaviconImageMigrationItem@@QEAV2@AEBV2@@Z",
    "??$_Emplace_reallocate@AEBVFaviconMappingMigrationItem@@@?$vector@VFaviconMappingMigrationItem@@V?$allocator@VFaviconMappingMigrationItem@@@std@@@std@@QEAAPEAVFaviconMappingMigrationItem@@QEAV2@AEBV2@@Z",
    "??$_Emplace_reallocate@AEBVFormDataMigrationItem@@@?$vector@VFormDataMigrationItem@@V?$allocator@VFormDataMigrationItem@@@std@@@std@@QEAAPEAVFormDataMigrationItem@@QEAV2@AEBV2@@Z",
    "??$_Emplace_reallocate@AEBVHistoryMigrationItem@@@?$vector@VHistoryMigrationItem@@V?$allocator@VHistoryMigrationItem@@@std@@@std@@QEAAPEAVHistoryMigrationItem@@QEAV2@AEBV2@@Z",
    "??$_Emplace_reallocate@AEBVLoginMigrationItem@@@?$vector@VLoginMigrationItem@@V?$allocator@VLoginMigrationItem@@@std@@@std@@QEAAPEAVLoginMigrationItem@@QEAV2@AEBV2@@Z",
    "??$_Emplace_reallocate@V?$basic_string@GU?$char_traits@G@std@@V?$allocator@G@2@@std@@@?$vector@V?$basic_string@GU?$char_traits@G@std@@V?$allocator@G@2@@std@@V?$allocator@V?$basic_string@GU?$char_traits@G@std@@V?$allocator@G@2@@std@@@2@@std@@QEAAPEAV?$basic_string@GU?$char_traits@G@std@@V?$allocator@G@2@@1@QEAV21@$$QEAV21@@Z",
    "??$_Insert_string@GU?$char_traits@G@std@@_K@std@@YAAEAV?$basic_ostream@GU?$char_traits@G@std@@@0@AEAV10@QEBG_K@Z",
    "??$_Range_construct_or_tidy@PEBUQueryTuple@@@?$vector@UQueryTuple@@V?$allocator@UQueryTuple@@@std@@@std@@AEAAXPEBUQueryTuple@@0Uforward_iterator_tag@1@@Z",
    "??$use_facet@V?$codecvt@GDU_Mbstatet@@@std@@@std@@YAAEBV?$codecvt@GDU_Mbstatet@@@0@AEBVlocale@0@@Z",
    "??$use_facet@V?$ctype@G@std@@@std@@YAAEBV?$ctype@G@0@AEBVlocale@0@@Z",
    "??0?$CW2AEX@$0IA@@ATL@@QEAA@PEBG@Z",
    "??0?$basic_ofstream@GU?$char_traits@G@std@@@std@@QEAA@XZ",
    "??0?$basic_string@DU?$char_traits@D@std@@V?$allocator@D@2@@std@@QEAA@AEBV01@@Z",
    "??0?$basic_string@DU?$char_traits@D@std@@V?$allocator@D@2@@std@@QEAA@QEBD@Z",
    "??0?$basic_string@GU?$char_traits@G@std@@V?$allocator@G@2@@std@@QEAA@AEBV01@@Z",
    "??0?$basic_string@GU?$char_traits@G@std@@V?$allocator@G@2@@std@@QEAA@QEBG@Z",
    "??0?$basic_stringstream@GU?$char_traits@G@std@@V?$allocator@G@2@@std@@QEAA@H@Z",
    "??0CAtlException@ATL@@QEAA@J@Z",
    "??0CachedFile@@QEAA@PEBG@Z",
    "??0ChromeDataStore@@QEAA@XZ",
    "??0CookieMigrationItem@@QEAA@AEBV0@@Z",
    "??0LoginMigrationItem@@QEAA@AEBV0@@Z",
    "??0QQBrowserDataStore@@QEAA@XZ",
    "??0Qihoo360SEDataStore@@QEAA@XZ",
    "??0ResultException@wil@@QEAA@AEBUFailureInfo@1@@Z",
    "??0ResultException@wil@@QEAA@AEBV01@@Z",
    "??0bad_alloc@std@@QEAA@AEBV01@@Z",
    "??0bad_alloc@std@@QEAA@XZ",
    "??0bad_array_new_length@std@@QEAA@AEBV01@@Z",
    "??0bad_array_new_length@std@@QEAA@XZ",
    "??0bad_cast@std@@QEAA@AEBV01@@Z",
    "??0bad_cast@std@@QEAA@XZ",
    "??0exception@std@@QEAA@AEBV01@@Z",
    "??0invalid_argument@std@@QEAA@AEBV01@@Z",
    "??0invalid_argument@std@@QEAA@PEBD@Z",
    "??0logic_error@std@@QEAA@AEBV01@@Z",
    "??0runtime_error@std@@QEAA@AEBV01@@Z",
    "??0runtime_error@std@@QEAA@AEBV?$basic_string@DU?$char_traits@D@std@@V?$allocator@D@2@@1@@Z",
    "??0runtime_error@std@@QEAA@PEBD@Z",
    "??0sentry@?$basic_ostream@GU?$char_traits@G@std@@@std@@QEAA@AEAV12@@Z",
    "??1?$CCoTaskMemPtr@D@@QEAA@XZ",
    "??1?$CCoTaskMemPtr@G@@QEAA@XZ",
    "??1?$CW2AEX@$0IA@@ATL@@QEAA@XZ",
    "??1?$ComPtr@UIEnumSTATURL@@@WRL@Microsoft@@QEAA@XZ",
    "??1?$ComPtr@UIJsonArray@Json@Data@Windows@@@WRL@Microsoft@@QEAA@XZ",
    "??1?$ComPtr@UIJsonObject@Json@Data@Windows@@@WRL@Microsoft@@QEAA@XZ",
    "??1?$ComPtr@UIJsonObjectStatics@Json@Data@Windows@@@WRL@Microsoft@@QEAA@XZ",
    "??1?$ComPtr@UIJsonValue@Json@Data@Windows@@@WRL@Microsoft@@QEAA@XZ",
    "??1?$ComPtr@UIJsonValueStatics@Json@Data@Windows@@@WRL@Microsoft@@QEAA@XZ",
    "??1?$ComPtr@UIUrlHistoryStg@@@WRL@Microsoft@@QEAA@XZ",
    "??1?$_Uninitialized_backout_al@PEAVCookieMigrationItem@@V?$allocator@VCookieMigrationItem@@@std@@@std@@QEAA@XZ",
    "??1?$_Uninitialized_backout_al@PEAVFaviconImageMigrationItem@@V?$allocator@VFaviconImageMigrationItem@@@std@@@std@@QEAA@XZ",
    "??1?$_Uninitialized_backout_al@PEAVFaviconMappingMigrationItem@@V?$allocator@VFaviconMappingMigrationItem@@@std@@@std@@QEAA@XZ",
    "??1?$_Uninitialized_backout_al@PEAVFormDataMigrationItem@@V?$allocator@VFormDataMigrationItem@@@std@@@std@@QEAA@XZ",
    "??1?$_Uninitialized_backout_al@PEAVHistoryMigrationItem@@V?$allocator@VHistoryMigrationItem@@@std@@@std@@QEAA@XZ",
    "??1?$_Uninitialized_backout_al@PEAVLoginMigrationItem@@V?$allocator@VLoginMigrationItem@@@std@@@std@@QEAA@XZ",
    "??1?$basic_filebuf@GU?$char_traits@G@std@@@std@@UEAA@XZ",
    "??1?$basic_string@DU?$char_traits@D@std@@V?$allocator@D@2@@std@@QEAA@XZ",
    "??1?$basic_string@GU?$char_traits@G@std@@V?$allocator@G@2@@std@@QEAA@XZ",
    "??1?$basic_stringbuf@GU?$char_traits@G@std@@V?$allocator@G@2@@std@@UEAA@XZ",
    "??1?$unique_ptr@V_Facet_base@std@@U?$default_delete@V_Facet_base@std@@@2@@std@@QEAA@XZ",
    "??1?$vector@PEAVDataStore@@V?$allocator@PEAVDataStore@@@std@@@std@@QEAA@XZ",
    "??1?$vector@V?$basic_string@GU?$char_traits@G@std@@V?$allocator@G@2@@std@@V?$allocator@V?$basic_string@GU?$char_traits@G@std@@V?$allocator@G@2@@std@@@2@@std@@QEAA@XZ",
    "??1?$vector@VCookieMigrationItem@@V?$allocator@VCookieMigrationItem@@@std@@@std@@QEAA@XZ",
    "??1?$vector@VFaviconImageMigrationItem@@V?$allocator@VFaviconImageMigrationItem@@@std@@@std@@QEAA@XZ",
    "??1?$vector@VFaviconMappingMigrationItem@@V?$allocator@VFaviconMappingMigrationItem@@@std@@@std@@QEAA@XZ",
    "??1?$vector@VFormDataMigrationItem@@V?$allocator@VFormDataMigrationItem@@@std@@@std@@QEAA@XZ",
    "??1?$vector@VHistoryMigrationItem@@V?$allocator@VHistoryMigrationItem@@@std@@@std@@QEAA@XZ",
    "??1?$vector@VLoginMigrationItem@@V?$allocator@VLoginMigrationItem@@@std@@@std@@QEAA@XZ",
    "??1CEnum@SettingStore@@QEAA@XZ",
    "??1ChromeCookiesQueryResult@@UEAA@XZ",
    "??1ChromeDBVersionQueryResult@@UEAA@XZ",
    "??1ChromeFaviconImageQueryResult@@UEAA@XZ",
    "??1ChromeFaviconMappingQueryResult@@UEAA@XZ",
    "??1ChromeHistoryQueryResult@@UEAA@XZ",
    "??1ChromeLoginQueryResult@@UEAA@XZ",
    "??1CookieMigrationItem@@QEAA@XZ",
    "??1DataStore@@UEAA@XZ",
    "??1FaviconImageMigrationItem@@QEAA@XZ",
    "??1FaviconMappingMigrationItem@@QEAA@XZ",
    "??1FormDataMigrationItem@@QEAA@XZ",
    "??1HString@Wrappers@WRL@Microsoft@@QEAA@XZ",
    "??1HStringReference@Wrappers@WRL@Microsoft@@QEAA@XZ",
    "??1HistoryMigrationItem@@QEAA@XZ",
    "??1LoginMigrationItem@@QEAA@XZ",
    "??1QQBrowserFaviconImageQueryResult@@UEAA@XZ",
    "??1QQBrowserFaviconMappingQueryResult@@UEAA@XZ",
    "??1Qihoo360SEFaviconImageQueryResult@@UEAA@XZ",
    "??1Qihoo360SEFaviconMappingQueryResult@@UEAA@XZ",
    "??1QueryResult@@UEAA@XZ",
    "??1ResultException@wil@@UEAA@XZ",
    "??1SettingMigrationItem@@QEAA@XZ",
    "??1ThreadLocalData@details_abi@wil@@QEAA@XZ",
    "??1_Sentry_base@?$basic_ostream@GU?$char_traits@G@std@@@std@@QEAA@XZ",
    "??1bad_alloc@std@@UEAA@XZ",
    "??1bad_array_new_length@std@@UEAA@XZ",
    "??1bad_cast@std@@UEAA@XZ",
    "??1invalid_argument@std@@UEAA@XZ",
    "??1locale@std@@QEAA@XZ",
    "??1runtime_error@std@@UEAA@XZ",
    "??1sentry@?$basic_ostream@GU?$char_traits@G@std@@@std@@QEAA@XZ",
    "??2@YAPEAX_K@Z",
    "??2@YAPEAX_KPEAX@Z",
    "??3@YAXPEAX@Z",
    "??3@YAXPEAX_K@Z",
    "??4?$basic_string@GU?$char_traits@G@std@@V?$allocator@G@2@@std@@QEAAAEAV01@AEBV01@@Z",
    "??6?$basic_ostream@GU?$char_traits@G@std@@@std@@QEAAAEAV01@G@Z",
    "??_7?$basic_filebuf@GU?$char_traits@G@std@@@std@@6B@",
    "??_7?$basic_ifstream@GU?$char_traits@G@std@@@std@@6B@",
    "??_7?$basic_ofstream@GU?$char_traits@G@std@@@std@@6B@",
    "??_7?$basic_stringbuf@GU?$char_traits@G@std@@V?$allocator@G@2@@std@@6B@",
    "??_7?$basic_stringstream@GU?$char_traits@G@std@@V?$allocator@G@2@@std@@6B@",
    "??_7?$codecvt_utf8@G$0BAPPPP@$0A@@std@@6B@",
    "??_7ChromeCookiesQueryResult@@6B@",
    "??_7ChromeDBVersionQueryResult@@6B@",
    "??_7ChromeDataStore@@6B@",
    "??_7ChromeFaviconImageQueryResult@@6B@",
    "??_7ChromeFaviconMappingQueryResult@@6B@",
    "??_7ChromeHistoryQueryResult@@6B@",
    "??_7ChromeLoginQueryResult@@6B@",
    "??_7CookieMigrationItem@@6B@",
    "??_7DataStore@@6B@",
    "??_7FaviconImageMigrationItem@@6B@",
    "??_7FaviconMappingMigrationItem@@6B@",
    "??_7FormDataMigrationItem@@6B@",
    "??_7HistoryMigrationItem@@6B@",
    "??_7IE11DataStore@@6B@",
    "??_7LoginMigrationItem@@6B@",
    "??_7MigrationItem@@6B@",
    "??_7QQBrowserDataStore@@6B@",
    "??_7QQBrowserFaviconImageQueryResult@@6B@",
    "??_7QQBrowserFaviconMappingQueryResult@@6B@",
    "??_7Qihoo360SEDataStore@@6B@",
    "??_7Qihoo360SEFaviconImageQueryResult@@6B@",
    "??_7Qihoo360SEFaviconMappingQueryResult@@6B@",
    "??_7QueryResult@@6B@",
    "??_7ResultException@wil@@6B@",
    "??_7SettingMigrationItem@@6B@",
    "??_7bad_alloc@std@@6B@",
    "??_7bad_array_new_length@std@@6B@",
    "??_7bad_cast@std@@6B@",
    "??_7exception@std@@6B@",
    "??_7invalid_argument@std@@6B@",
    "??_7logic_error@std@@6B@",
    "??_7runtime_error@std@@6B@",
    "??_7type_info@@6B@",
    "??_8?$basic_ifstream@GU?$char_traits@G@std@@@std@@7B@",
    "??_8?$basic_ofstream@GU?$char_traits@G@std@@@std@@7B@",
    "??_8?$basic_stringstream@GU?$char_traits@G@std@@V?$allocator@G@2@@std@@7B?$basic_istream@GU?$char_traits@G@std@@@1@@",
    "??_8?$basic_stringstream@GU?$char_traits@G@std@@V?$allocator@G@2@@std@@7B?$basic_ostream@GU?$char_traits@G@std@@@1@@",
    "??_C@_00CNPNBAHC@@",
    "??_C@_01BJJEKLCA@?$CC@",
    "??_C@_01CLKCMJKC@?5@",
    "??_C@_01IHBHIGKO@?0@",
    "??_C@_01NBENCBCI@?$CK@",
    "??_C@_02CEGNPMN@?$CC?0@",
    "??_C@_02KEGNLNML@?0?5@",
    "??_C@_02KOPDJAMB@?$CC?5@",
    "??_C@_03BMPLCLAP@?$CFws@",
    "??_C@_03HAFDNMHA@?$CC?0?5@",
    "??_C@_03KGBNGMMC@wil@",
    "??_C@_05OILEHMGB@LogHr@",
    "??_C@_08EPJLHIJG@bad?5cast@",
    "??_C@_08IAOKKAJK@FailFast@",
    "??_C@_08KFPKLAKH@ReturnHr@",
    "??_C@_09FBNMMHMJ@Exception@",
    "??_C@_0BA@JFNIOLAK@string?5too?5long@",
    "??_C@_0BC@EOODALEL@Unknown?5exception@",
    "??_C@_0BD@EIHDAIBE@pLoginItem?5is?5NULL@",
    "??_C@_0BD@OLBABOEK@vector?$DMT?$DO?5too?5long@",
    "??_C@_0BE@JLCGEHAO@pCookieItem?5is?5NULL@",
    "??_C@_0BF@KINCDENJ@bad?5array?5new?5length@",
    "??_C@_0BH@EEDPADAA@RaiseFailFastException@",
    "??_C@_0BH@OCJMCAOP@Invalid?5sourceFilePath@",
    "??_C@_0BJ@EHEAKADM@Cache?5file?5copy?5failed?3?5@",
    "??_C@_0BJ@FLFGNKIC@RtlDllShutdownInProgress@",
    "??_C@_0BK@FPLBILHI@pFaviconImageItem?5is?5NULL@",
    "??_C@_0BM@FIHGNPIL@Parameter?5pszQuery?5is?5empty@",
    "??_C@_0BM@JAMEOIHL@Failed?5to?5filter?5IE?5history@",
    "??_C@_0BM@OOFJAPDO@Parameter?5pDatabase?5is?5NULL@",
    "??_C@_0BN@IBGJAMJL@Failed?5to?5call?5StringCchCopy@",
    "??_C@_0BN@OOIPIJNC@Failed?5to?5call?5PathCchAppend@",
    "??_C@_0BO@HFNANPLG@Unable?5to?5call?5CoInitializeEx@",
    "??_C@_0BO@IIKJMJHD@InternetGetCookieEx2?$CI?$CJ?5failed@",
    "??_C@_0BO@MKBEKHJP@Chrome?5unsupported?5query?5type@",
    "??_C@_0BP@IOAFMFCK@Unable?5to?5get?5TEMP?5folder?5path@",
    "??_C@_0BP@OHMKLANF@Failed?5to?5enumerate?5IE?5history@",
    "??_C@_0CA@BMBLMDPM@Chrome?5database?5not?5initialized@",
    "??_C@_0CA@IDOCPIKG@Query?5statement?5not?5initialized@",
    "??_C@_0CB@GFPGMKPC@Chrome?5LOGINS?5invalid?5DB?5versio@",
    "??_C@_0CB@LMHAJHOH@Failed?5to?5open?5output?5filestrea@",
    "??_C@_0CC@CJOCKPLL@Chrome?5History?5invalid?5DB?5versi@",
    "??_C@_0CC@HFCAABLJ@Failed?5to?5reset?5IE?5history?5filt@",
    "??_C@_0CC@JECHANOF@Chrome?5Cookies?5invalid?5DB?5versi@",
    "??_C@_0CC@MNDGJPFO@Chrome?5Preferences?5file?5not?5fou@",
    "??_C@_0CD@IBDEDCDO@Failed?5to?5get?5Local?5AppData?5fol@",
    "??_C@_0CD@PLEPKNDI@Invalid?5Chrome?5profile?5folder?5p@",
    "??_C@_0CG@GLODJHFG@Invalid?5QQBrowser?5profile?5folde@",
    "??_C@_0CH@EHIAIGIM@Chrome?5Logins?5database?5not?5init@",
    "??_C@_0CH@FJPHKOHP@Invalid?5Qihoo360SE?5profile?5fold@",
    "??_C@_0CH@FOGHACNC@Failed?5to?5open?5Chrome?5Preferenc@",
    "??_C@_0CI@CCBMBMFN@Chrome?5History?5database?5not?5ini@",
    "??_C@_0CI@FHPJBAMN@Failed?5to?5parse?5Chrome?5Preferen@",
    "??_C@_0CI@JCGKMKFL@Chrome?5Cookies?5database?5not?5ini@",
    "??_C@_0CI@LOKCDOEC@Failed?5to?5open?5Chrome?5Logins?5da@",
    "??_C@_0CI@PLFAKACA@Chrome?5FaviconImages?5invalid?5DB@",
    "??_C@_0CJ@DCMHFKPE@Failed?5to?5open?5Chrome?5History?5d@",
    "??_C@_0CJ@GHBCPBKN@Failed?5to?5open?5Chrome?5Cookies?5d@",
    "??_C@_0CJ@MCKEKFNJ@Chrome?5Favicons?5database?5not?5in@",
    "??_C@_0CK@IPLPKDMO@Failed?5to?5open?5Chrome?5Favicons?5@",
    "??_C@_0CK@MOCOCCCO@Chrome?5FaviconMappings?5invalid?5@",
    "??_C@_0CL@BMPACAEP@Unable?5to?5get?5Chrome?5Preference@",
    "??_C@_0CM@NHGDBMHK@QQBrowser?5Favicons?5database?5not@",
    "??_C@_0CN@BIOBFIIG@Failed?5to?5get?5Chrome?5Preference@",
    "??_C@_0CN@JEDBDKDP@Failed?5to?5open?5QQBrowser?5Favico@",
    "??_C@_0CN@KKLDDCFE@SELECT?5value?5FROM?5meta?5WHERE?5ke@",
    "??_C@_0CN@MNAPNFPF@Qihoo360SE?5Favicons?5database?5no@",
    "??_C@_0CO@FAIPMMKN@Failed?5to?5open?5Qihoo360SE?5Favic@",
    "??_C@_0CP@DOPBJMCK@Unable?5to?5get?5Chrome?5Logins?5dat@",
    "??_C@_0CP@FDJJFILI@internal?2sdk?2inc?2wil?2opensource@",
    "??_C@_0CP@OFGCECEN@internal?2sdk?2inc?2wil?2opensource@",
    "??_C@_0DA@DKPIJFHB@Unable?5to?5get?5Chrome?5Cookies?5da@",
    "??_C@_0DA@IHDNDHCP@Unable?5to?5get?5Chrome?5History?5da@",
    "??_C@_0DB@LHKABEL@Unable?5to?5CoCreateInstance?5for?5@",
    "??_C@_0DB@MCAANMAK@Unable?5to?5get?5Chrome?5Favicons?5d@",
    "??_C@_0DC@JIJPJHED@Failed?5to?5parse?5Chrome?5Preferen@",
    "??_C@_0DD@KAIBAHNI@onecoreuap?2inetcore?2lib?2tracelo@",
    "??_C@_0DE@IOHKIDDL@Unable?5to?5get?5QQBrowser?5Favicon@",
    "??_C@_0DF@NGAEPLIM@Unable?5to?5get?5Qihoo360SE?5Favico@",
    "??_C@_0EO@FIJPILOL@Failed?5to?5get?5activation?5factor@",
    "??_C@_0HA@GKMOBBMK@SELECT?5icon_mapping?4page_url?0?5f@",
    "??_C@_0IA@KJNCAILO@SELECT?5name?0?5encrypted_value?0?5h@",
    "??_C@_0IG@OKOJHDGP@SELECT?5name?0?5encrypted_value?0?5h@",
    "??_C@_0JG@OCEJBIEH@SELECT?5username_value?0?5password@",
    "??_C@_0LJ@KEBBJNPP@SELECT?5favicons?4url?0?5favicon_bi@",
    "??_C@_0M@NMJHHMC@WilError_02@",
    "??_C@_0P@GHFPNOJB@bad?5allocation@",
    "??_C@_0PP@ENKHEFBB@SELECT?5DISTINCT?5urls?4title?0?5url@",
    "??_C@_11LOCGONAA@@",
    "??_C@_13CACJPPAP@?$AAh@",
    "??_C@_13HOIJIPNN@?$AA?5@",
    "??_C@_13LBAGMAIH@?$AA?6@",
    "??_C@_13NEIAEHFG@?$AA?$CC@",
    "??_C@_15CLDMDOAP@?$AA?2?$AAf@",
    "??_C@_15DJBMFJKF@?$AA?1?$AA?2@",
    "??_C@_15DPEKPBGF@?$AA?2?$AA?$CC@",
    "??_C@_15GJJAMGHO@?$AA?2?$AAu@",
    "??_C@_15HAPGIMBF@?$AA?5?$AA?$FN@",
    "??_C@_15IPOKAMGA@?$AA?$HL?$AA?5@",
    "??_C@_15JOGBDECP@?$AA?0?$AA?5@",
    "??_C@_15KEFOKJFI@?$AA?2?$AAb@",
    "??_C@_15LEKKCGMK@?$AA?2?$AA?2@",
    "??_C@_15NAMECDCL@?$AA?5?$AA?$HN@",
    "??_C@_15NBCMKBBL@?$AA?2?$AAt@",
    "??_C@_15OOIIBGOA@?$AA?2?$AAn@",
    "??_C@_15PEEHPOMH@?$AA?2?$AAr@",
    "??_C@_17ONNCDEJM@?$AA_?$AAp?$AA0@",
    "??_C@_19FKLFLPMF@?$AAt?$AAr?$AAu?$AAe@",
    "??_C@_19HHIIBINK@?$AAn?$AAa?$AAm?$AAe@",
    "??_C@_19JIFMCCAP@?$AAp?$AAa?$AAt?$AAh@",
    "??_C@_19NMAFMAH@?$AA?5?$AA?5?$AA?5?$AA?5@",
    "??_C@_19PKIEGNGP@?$AA?5?$AA?$HN?$AA?5?$AA?$HN@",
    "??_C@_1BA@BFCJAKHE@?$AAd?$AAw?$AAF?$AAl?$AAa?$AAg?$AAs@",
    "??_C@_1BA@BKMGIBPB@?$AAe?$AAn?$AAa?$AAb?$AAl?$AAe?$AAd@",
    "??_C@_1BA@EEFCJAPF@?$AAc?$AAo?$AAo?$AAk?$AAi?$AAe?$AAs@",
    "??_C@_1BA@FDCHGGLD@?$AAb?$AAr?$AAo?$AAw?$AAs?$AAe?$AAr@",
    "??_C@_1BA@PNHGIEJF@?$AAp?$AAr?$AAo?$AAf?$AAi?$AAl?$AAe@",
    "??_C@_1BC@BBCCCFLE@?$AA?$CC?$AAu?$AAr?$AAl?$AA?$CC?$AA?3?$AA?5?$AA?$CC@",
    "??_C@_1BC@DIBBIJII@?$AAd?$AAo?$AAw?$AAn?$AAl?$AAo?$AAa?$AAd@",
    "??_C@_1BC@HOGHCIFF@?$AA?$CF?$AAh?$AAs?$AA?$CB?$AA?$CF?$AAp?$AA?3?$AA?5@",
    "??_C@_1BC@IBNMKHBG@?$AAa?$AAu?$AAt?$AAo?$AAf?$AAi?$AAl?$AAl@",
    "??_C@_1BE@GJOFHIHD@?$AAn?$AAt?$AAd?$AAl?$AAl?$AA?4?$AAd?$AAl?$AAl@",
    "??_C@_1BE@JADDJOIL@?$AA?$CC?$AAn?$AAa?$AAm?$AAe?$AA?$CC?$AA?3?$AA?5?$AA?$CC@",
    "??_C@_1BE@NCKCGFFD@?$AAf?$AAt?$AAE?$AAx?$AAp?$AAi?$AAr?$AAe?$AAs@",
    "??_C@_1BE@PBPGBCNI@?$AA?$CC?$AAp?$AAa?$AAt?$AAh?$AA?$CC?$AA?3?$AA?5?$AA?$CC@",
    "??_C@_1BG@CAECHBNJ@?$AA?$CC?$AAt?$AAi?$AAt?$AAl?$AAe?$AA?$CC?$AA?3?$AA?5?$AA?$CC@",
    "??_C@_1BG@KAANMLKE@?$AA?$CC?$AAv?$AAa?$AAl?$AAu?$AAe?$AA?$CC?$AA?3?$AA?5?$AA?$CC@",
    "??_C@_1BG@MCLOHHAM@?$AAM?$AAs?$AAg?$AA?3?$AA?$FL?$AA?$CF?$AAw?$AAs?$AA?$FN?$AA?5@",
    "??_C@_1BI@DNDDFKJP@?$AA?$CC?$AAl?$AAo?$AAg?$AAi?$AAn?$AAs?$AA?$CC?$AA?3?$AA?5?$AA?$FL@",
    "??_C@_1BI@EKLIPJL@?$AA?$CC?$AAd?$AAo?$AAm?$AAa?$AAi?$AAn?$AA?$CC?$AA?3?$AA?5?$AA?$CC@",
    "??_C@_1BI@IPFBHBDC@?$AA?$CC?$AAd?$AAw?$AAF?$AAl?$AAa?$AAg?$AAs?$AA?$CC?$AA?3?$AA?5@",
    "??_C@_1BI@LMGCCLA@?$AAf?$AAE?$AAx?$AAp?$AAi?$AAr?$AAe?$AAs?$AAS?$AAe?$AAt@",
    "??_C@_1BI@PKOCHLJN@?$AA?$FL?$AA?$CF?$AAh?$AAs?$AA?$CI?$AA?$CF?$AAh?$AAs?$AA?$CJ?$AA?$FN?$AA?6@",
    "??_C@_1BK@CDAMNBBA@?$AA?$CC?$AAs?$AAe?$AAt?$AAt?$AAi?$AAn?$AAg?$AAs?$AA?$CC?$AA?3?$AA?5@",
    "??_C@_1BK@GGMBKFGG@?$AA?$CC?$AAc?$AAo?$AAo?$AAk?$AAi?$AAe?$AAs?$AA?$CC?$AA?3?$AA?5?$AA?$FL@",
    "??_C@_1BK@LPLDHKLP@?$AAb?$AAo?$AAo?$AAk?$AAm?$AAa?$AAr?$AAk?$AA_?$AAb?$AAa?$AAr@",
    "??_C@_1BK@MPNGBDOH@?$AA?$CC?$AAh?$AAi?$AAs?$AAt?$AAo?$AAr?$AAy?$AA?$CC?$AA?3?$AA?5?$AA?$FL@",
    "??_C@_1BM@BGGPMMCL@?$AA?$CC?$AAf?$AAt?$AAE?$AAx?$AAp?$AAi?$AAr?$AAe?$AAs?$AA?$CC?$AA?3?$AA?5@",
    "??_C@_1BM@CCOICENI@?$AAM?$AAi?$AAg?$AAr?$AAa?$AAt?$AAi?$AAo?$AAn?$AAD?$AAa?$AAt?$AAa@",
    "??_C@_1BM@CGMNBOGI@?$AA?$CC?$AAf?$AAo?$AAr?$AAm?$AAd?$AAa?$AAt?$AAa?$AA?$CC?$AA?3?$AA?5?$AA?$FL@",
    "??_C@_1BM@EAHLIJPA@?$AA?$CI?$AAc?$AAa?$AAl?$AAl?$AAe?$AAr?$AA?3?$AA?5?$AA?$CF?$AAp?$AA?$CJ?$AA?5@",
    "??_C@_1BM@HIMJLAML@?$AA?$CC?$AAu?$AAs?$AAe?$AAr?$AAN?$AAa?$AAm?$AAe?$AA?$CC?$AA?3?$AA?5?$AA?$CC@",
    "??_C@_1BM@KNJGNGKM@?$AA?$CC?$AAp?$AAa?$AAs?$AAs?$AAw?$AAo?$AAr?$AAd?$AA?$CC?$AA?3?$AA?5?$AA?$CC@",
    "??_C@_1BO@IDIMOPGK@?$AA?$CC?$AAo?$AAr?$AAi?$AAg?$AAi?$AAn?$AAU?$AAr?$AAl?$AA?$CC?$AA?3?$AA?5?$AA?$CC@",
    "??_C@_1BO@KMDENDBA@?$AA?$CC?$AAi?$AAm?$AAa?$AAg?$AAe?$AAD?$AAa?$AAt?$AAa?$AA?$CC?$AA?3?$AA?5?$AA?$CC@",
    "??_C@_1BO@MFOKJHPK@?$AAk?$AAe?$AAr?$AAn?$AAe?$AAl?$AAb?$AAa?$AAs?$AAe?$AA?4?$AAd?$AAl?$AAl@",
    "??_C@_1BO@MMAEKNIN@?$AA?$CC?$AAa?$AAc?$AAt?$AAi?$AAo?$AAn?$AAU?$AAr?$AAl?$AA?$CC?$AA?3?$AA?5?$AA?$CC@",
    "??_C@_1CA@EDGNIEJE@?$AA?$CC?$AAb?$AAl?$AAo?$AAc?$AAk?$AAP?$AAo?$AAp?$AAu?$AAp?$AAs?$AA?$CC?$AA?3?$AA?5@",
    "??_C@_1CA@FLEBGECL@?$AA?$CC?$AAf?$AAE?$AAx?$AAp?$AAi?$AAr?$AAe?$AAs?$AAS?$AAe?$AAt?$AA?$CC?$AA?3?$AA?5@",
    "??_C@_1CA@FOEMEFKC@?$AA?5?$AA?$HL?$AA?5?$AA?$CC?$AAb?$AAr?$AAo?$AAw?$AAs?$AAe?$AAr?$AA?$CC?$AA?3?$AA?5?$AA?$CC@",
    "??_C@_1CA@ILLCFAHB@?$AA?$CC?$AAf?$AAa?$AAv?$AAi?$AAc?$AAo?$AAn?$AAU?$AAr?$AAl?$AA?$CC?$AA?3?$AA?5?$AA?$CC@",
    "??_C@_1CA@KBBPPIG@?$AA?$CC?$AAd?$AAa?$AAt?$AAe?$AAC?$AAr?$AAe?$AAa?$AAt?$AAe?$AAd?$AA?$CC?$AA?3?$AA?5@",
    "??_C@_1CA@ODEJJDIJ@?$AA?$CC?$AAh?$AAa?$AAs?$AAh?$AAe?$AAd?$AAN?$AAa?$AAm?$AAe?$AA?$CC?$AA?3?$AA?5?$AA?$CC@",
    "??_C@_1CA@PGLGHFKC@?$AA?$CC?$AAs?$AAt?$AAr?$AAi?$AAn?$AAg?$AAL?$AAi?$AAs?$AAt?$AA?$CC?$AA?3?$AA?5?$AA?$CC@",
    "??_C@_1CC@CMMBNPBE@?$AA?$CF?$AAh?$AAs?$AA?$CI?$AA?$CF?$AAd?$AA?$CJ?$AA?2?$AA?$CF?$AAh?$AAs?$AA?$CB?$AA?$CF?$AAp?$AA?3@",
    "??_C@_1CC@DIFCLACJ@?$AAs?$AAh?$AAo?$AAw?$AA_?$AAh?$AAo?$AAm?$AAe?$AA_?$AAb?$AAu?$AAt?$AAt?$AAo@",
    "??_C@_1CC@OOMFINOB@?$AAs?$AAh?$AAo?$AAw?$AA_?$AAo?$AAn?$AA_?$AAa?$AAl?$AAl?$AA_?$AAt?$AAa?$AAb@",
    "??_C@_1CC@POPNIFEM@?$AA?$CC?$AAL?$AAa?$AAs?$AAt?$AAA?$AAc?$AAc?$AAe?$AAs?$AAs?$AAe?$AAd?$AA?$CC?$AA?3@",
    "??_C@_1CE@JDGCHAKO@?$AA?$CC?$AAs?$AAa?$AAv?$AAe?$AAP?$AAa?$AAs?$AAs?$AAw?$AAo?$AAr?$AAd?$AAs?$AA?$CC@",
    "??_C@_1CE@PKDJBMEK@?$AAd?$AAe?$AAf?$AAa?$AAu?$AAl?$AAt?$AA_?$AAd?$AAi?$AAr?$AAe?$AAc?$AAt?$AAo@",
    "??_C@_1CG@CGJKEFKG@?$AAC?$AAa?$AAl?$AAl?$AAC?$AAo?$AAn?$AAt?$AAe?$AAx?$AAt?$AA?3?$AA?$FL?$AA?$CF?$AAh@",
    "??_C@_1CG@GJFKJCDB@?$AA?$CC?$AA?$CF?$AAs?$AA?$CC?$AA?5?$AA?$CF?$AAs?$AA?5?$AA?$CF?$AAs?$AA?5?$AA?$CF?$AAs?$AA?5?$AA?$CC@",
    "??_C@_1CG@OAGBJGCK@?$AA?$CC?$AAf?$AAa?$AAv?$AAi?$AAc?$AAo?$AAn?$AAI?$AAm?$AAa?$AAg?$AAe?$AAs?$AA?$CC@",
    "??_C@_1CG@POIAMEPM@?$AA?$CC?$AAs?$AAh?$AAo?$AAw?$AAH?$AAo?$AAm?$AAe?$AAB?$AAu?$AAt?$AAt?$AAo?$AAn@",
    "??_C@_1CI@EOLMILME@?$AAL?$AAo?$AAc?$AAa?$AAl?$AA?2?$AAS?$AAM?$AA0?$AA?3?$AA?$CF?$AAd?$AA?3?$AA?$CF?$AAd@",
    "??_C@_1CI@FPKNOONN@?$AA?$HL?$AA?5?$AA?$CC?$AAM?$AAi?$AAg?$AAr?$AAa?$AAt?$AAi?$AAo?$AAn?$AAD?$AAa?$AAt@",
    "??_C@_1CI@LHNKKGBN@?$AAe?$AAn?$AAa?$AAb?$AAl?$AAe?$AA_?$AAd?$AAo?$AA_?$AAn?$AAo?$AAt?$AA_?$AAt@",
    "??_C@_1CI@MIMBDDLM@?$AA?$CC?$AAs?$AAa?$AAv?$AAe?$AAF?$AAo?$AAr?$AAm?$AAE?$AAn?$AAt?$AAr?$AAi?$AAe@",
    "??_C@_1CK@FDBJMBMF@?$AA?$CC?$AAs?$AAh?$AAo?$AAw?$AAF?$AAa?$AAv?$AAo?$AAr?$AAi?$AAt?$AAe?$AAs?$AAB@",
    "??_C@_1CK@FMGPMIDD@?$AA?$CC?$AAf?$AAa?$AAv?$AAi?$AAc?$AAo?$AAn?$AAM?$AAa?$AAp?$AAp?$AAi?$AAn?$AAg@",
    "??_C@_1CK@HIPHNACG@?$AA?$CC?$AAu?$AAs?$AAe?$AAr?$AAN?$AAa?$AAm?$AAe?$AAE?$AAl?$AAe?$AAm?$AAe?$AAn@",
    "??_C@_1CK@PBGHBMI@?$AA?$CC?$AAp?$AAa?$AAs?$AAs?$AAw?$AAo?$AAr?$AAd?$AAE?$AAl?$AAe?$AAm?$AAe?$AAn@",
    "??_C@_1CM@OAPANNHM@?$AA?$CC?$AAd?$AAo?$AAw?$AAn?$AAl?$AAo?$AAa?$AAd?$AAL?$AAo?$AAc?$AAa?$AAt?$AAi@",
    "??_C@_1CO@EIEHILNF@?$AAI?$AAn?$AAv?$AAa?$AAl?$AAi?$AAd?$AA?5?$AAb?$AAr?$AAo?$AAw?$AAs?$AAe?$AAr@",
    "??_C@_1DC@CGGBOOJK@?$AAp?$AAa?$AAs?$AAs?$AAw?$AAo?$AAr?$AAd?$AA_?$AAm?$AAa?$AAn?$AAa?$AAg?$AAe@",
    "??_C@_1DC@KPEBEEME@?$AAI?$AAn?$AAv?$AAa?$AAl?$AAi?$AAd?$AA?5?$AAa?$AAr?$AAg?$AAu?$AAm?$AAe?$AAn@",
    "??_C@_1DC@MFHOKFOG@?$AA?$CF?$AAh?$AAs?$AA?$CI?$AA?$CF?$AAd?$AA?$CJ?$AA?5?$AAt?$AAi?$AAd?$AA?$CI?$AA?$CF?$AAx?$AA?$CJ@",
    "??_C@_1DG@JDFODLNN@?$AA?$CC?$AAs?$AAe?$AAn?$AAd?$AAD?$AAo?$AAN?$AAo?$AAt?$AAT?$AAr?$AAa?$AAc?$AAk@",
    "??_C@_1DO@PAMAKEKB@?$AAd?$AAe?$AAf?$AAa?$AAu?$AAl?$AAt?$AA_?$AAc?$AAo?$AAn?$AAt?$AAe?$AAn?$AAt@",
    "??_C@_1EA@FEHMPAME@?$AAF?$AAa?$AAi?$AAl?$AAe?$AAd?$AA?5?$AAt?$AAo?$AA?5?$AAs?$AAp?$AAe?$AAc?$AAi@",
    "??_C@_1M@HLGKFCJM@?$AAf?$AAa?$AAl?$AAs?$AAe@",
    "??_C@_1M@KBCLFMHN@?$AAv?$AAa?$AAl?$AAu?$AAe@",
    "??_C@_1O@CNKJIEDE@?$AAd?$AAo?$AAm?$AAa?$AAi?$AAn@",
    "??_C@_1O@PJKHPDBK@?$AA?$FL?$AA?$CF?$AAh?$AAs?$AA?$FN?$AA?6@",
    "??_C@_1O@POLMNONL@?$AAp?$AAo?$AAp?$AAu?$AAp?$AAs@",
    "??_D?$basic_ifstream@GU?$char_traits@G@std@@@std@@QEAAXXZ",
    "??_D?$basic_ofstream@GU?$char_traits@G@std@@@std@@QEAAXXZ",
    "??_D?$basic_stringstream@GU?$char_traits@G@std@@V?$allocator@G@2@@std@@QEAAXXZ",
    "??_E?$basic_filebuf@GU?$char_traits@G@std@@@std@@UEAAPEAXI@Z",
    "??_E?$basic_ifstream@GU?$char_traits@G@std@@@std@@$4PPPPPPPM@A@EAAPEAXI@Z",
    "??_E?$basic_ifstream@GU?$char_traits@G@std@@@std@@UEAAPEAXI@Z",
    "??_E?$basic_ofstream@GU?$char_traits@G@std@@@std@@$4PPPPPPPM@A@EAAPEAXI@Z",
    "??_E?$basic_ofstream@GU?$char_traits@G@std@@@std@@UEAAPEAXI@Z",
    "??_E?$basic_stringbuf@GU?$char_traits@G@std@@V?$allocator@G@2@@std@@UEAAPEAXI@Z",
    "??_E?$basic_stringstream@GU?$char_traits@G@std@@V?$allocator@G@2@@std@@$4PPPPPPPM@A@EAAPEAXI@Z",
    "??_E?$basic_stringstream@GU?$char_traits@G@std@@V?$allocator@G@2@@std@@UEAAPEAXI@Z",
    "??_E?$codecvt_utf8@G$0BAPPPP@$0A@@std@@UEAAPEAXI@Z",
    "??_EChromeCookiesQueryResult@@UEAAPEAXI@Z",
    "??_EChromeDBVersionQueryResult@@UEAAPEAXI@Z",
    "??_EChromeDataStore@@UEAAPEAXI@Z",
    "??_EChromeFaviconImageQueryResult@@UEAAPEAXI@Z",
    "??_EChromeFaviconMappingQueryResult@@UEAAPEAXI@Z",
    "??_EChromeHistoryQueryResult@@UEAAPEAXI@Z",
    "??_EChromeLoginQueryResult@@UEAAPEAXI@Z",
    "??_EDataStore@@UEAAPEAXI@Z",
    "??_EIE11DataStore@@UEAAPEAXI@Z",
    "??_EQQBrowserDataStore@@UEAAPEAXI@Z",
    "??_EQQBrowserFaviconImageQueryResult@@UEAAPEAXI@Z",
    "??_EQQBrowserFaviconMappingQueryResult@@UEAAPEAXI@Z",
    "??_EQihoo360SEDataStore@@UEAAPEAXI@Z",
    "??_EQihoo360SEFaviconImageQueryResult@@UEAAPEAXI@Z",
    "??_EQihoo360SEFaviconMappingQueryResult@@UEAAPEAXI@Z",
    "??_EQueryResult@@UEAAPEAXI@Z",
    "??_EResultException@wil@@UEAAPEAXI@Z",
    "??_Ebad_alloc@std@@UEAAPEAXI@Z",
    "??_Ebad_array_new_length@std@@UEAAPEAXI@Z",
    "??_Ebad_cast@std@@UEAAPEAXI@Z",
    "??_Eexception@std@@UEAAPEAXI@Z",
    "??_Einvalid_argument@std@@UEAAPEAXI@Z",
    "??_Elogic_error@std@@UEAAPEAXI@Z",
    "??_Eruntime_error@std@@UEAAPEAXI@Z",
    "??_Etype_info@@UEAAPEAXI@Z",
    "??_G?$ProcessLocalStorageData@UProcessLocalData@details_abi@wil@@@details_abi@wil@@QEAAPEAXI@Z",
    "??_G?$basic_filebuf@GU?$char_traits@G@std@@@std@@UEAAPEAXI@Z",
    "??_G?$basic_ifstream@GU?$char_traits@G@std@@@std@@UEAAPEAXI@Z",
    "??_G?$basic_ofstream@GU?$char_traits@G@std@@@std@@UEAAPEAXI@Z",
    "??_G?$basic_stringbuf@GU?$char_traits@G@std@@V?$allocator@G@2@@std@@UEAAPEAXI@Z",
    "??_G?$basic_stringstream@GU?$char_traits@G@std@@V?$allocator@G@2@@std@@UEAAPEAXI@Z",
    "??_G?$codecvt_utf8@G$0BAPPPP@$0A@@std@@UEAAPEAXI@Z",
    "??_GChromeCookiesQueryResult@@UEAAPEAXI@Z",
    "??_GChromeDBVersionQueryResult@@UEAAPEAXI@Z",
    "??_GChromeDataStore@@UEAAPEAXI@Z",
    "??_GChromeFaviconImageQueryResult@@UEAAPEAXI@Z",
    "??_GChromeFaviconMappingQueryResult@@UEAAPEAXI@Z",
    "??_GChromeHistoryQueryResult@@UEAAPEAXI@Z",
    "??_GChromeLoginQueryResult@@UEAAPEAXI@Z",
    "??_GDataStore@@UEAAPEAXI@Z",
    "??_GIE11DataStore@@UEAAPEAXI@Z",
    "??_GQQBrowserDataStore@@UEAAPEAXI@Z",
    "??_GQQBrowserFaviconImageQueryResult@@UEAAPEAXI@Z",
    "??_GQQBrowserFaviconMappingQueryResult@@UEAAPEAXI@Z",
    "??_GQihoo360SEDataStore@@UEAAPEAXI@Z",
    "??_GQihoo360SEFaviconImageQueryResult@@UEAAPEAXI@Z",
    "??_GQihoo360SEFaviconMappingQueryResult@@UEAAPEAXI@Z",
    "??_GQueryResult@@UEAAPEAXI@Z",
    "??_GResultException@wil@@UEAAPEAXI@Z",
    "??_Gbad_alloc@std@@UEAAPEAXI@Z",
    "??_Gbad_array_new_length@std@@UEAAPEAXI@Z",
    "??_Gbad_cast@std@@UEAAPEAXI@Z",
    "??_Gexception@std@@UEAAPEAXI@Z",
    "??_Ginvalid_argument@std@@UEAAPEAXI@Z",
    "??_Glogic_error@std@@UEAAPEAXI@Z",
    "??_Gruntime_error@std@@UEAAPEAXI@Z",
    "??_Gtype_info@@UEAAPEAXI@Z",
    "??_R0?AVCAtlException@ATL@@@8",
    "??_R0?AVResultException@wil@@@8",
    "??_R0?AVbad_alloc@std@@@8",
    "??_R0?AVbad_array_new_length@std@@@8",
    "??_R0?AVbad_cast@std@@@8",
    "??_R0?AVexception@std@@@8",
    "??_R0?AVinvalid_argument@std@@@8",
    "??_R0?AVlogic_error@std@@@8",
    "??_R0?AVruntime_error@std@@@8",
    "??_R0?AVtype_info@@@8",
    "??_R1A@?0A@EA@bad_alloc@std@@8",
    "??_R1A@?0A@EA@bad_array_new_length@std@@8",
    "??_R1A@?0A@EA@exception@std@@8",
    "??_R1A@?0A@EA@type_info@@8",
    "??_R2bad_alloc@std@@8",
    "??_R2bad_array_new_length@std@@8",
    "??_R2exception@std@@8",
    "??_R2type_info@@8",
    "??_R3bad_alloc@std@@8",
    "??_R3bad_array_new_length@std@@8",
    "??_R3exception@std@@8",
    "??_R3type_info@@8",
    "??_R4bad_alloc@std@@6B@",
    "??_R4bad_array_new_length@std@@6B@",
    "??_R4exception@std@@6B@",
    "??_R4type_info@@6B@",
    "??_U@YAPEAX_K@Z",
    "??_V@YAXPEAX@Z",
    "?Acquire@?$ProcessLocalStorageData@UProcessLocalData@details_abi@wil@@@details_abi@wil@@SAJPEBDPEAPEAV123@@Z",
    "?AtlThrowImpl@ATL@@YAXJ@Z",
    "?AtlThrowLastWin32@ATL@@YAXXZ",
    "?BROWSERPROFILEDATA_FILEPATH_LowCookiesMigration@FilePathStore@@3UBROWSERPROFILEDATA_FILEPATHID@1@B",
    "?BROWSER_TYPE_CHROME@@3QBGB",
    "?BROWSER_TYPE_IE11@@3QBGB",
    "?BROWSER_TYPE_QIHOO360SE@@3QBGB",
    "?BROWSER_TYPE_QQBROWSER@@3QBGB",
    "?Base64Encode@ATL@@YAHPEBEHPEADPEAHK@Z",
    "?Base64EncodeValue@MigrationDataUtils@@SAXPEBEHPEAPEAD@Z",
    "?Begin@TelemetryHelper@@SAXXZ",
    "?BrowserName@ChromeDataStore@@UEAAPEBDXZ",
    "?BrowserName@IE11DataStore@@UEAAPEBDXZ",
    "?BrowserName@QQBrowserDataStore@@UEAAPEBDXZ",
    "?BrowserName@Qihoo360SEDataStore@@UEAAPEBDXZ",
    "?Cleanup@CachedFile@@QEAAXXZ",
    "?DATA_TYPE_ALL@@3QBGB",
    "?DATA_TYPE_COOKIES@@3QBGB",
    "?DATA_TYPE_FAVICONS@@3QBGB",
    "?DATA_TYPE_FORMDATA@@3QBGB",
    "?DATA_TYPE_HEURISTIC@@3QBGB",
    "?DATA_TYPE_HISTORY@@3QBGB",
    "?DATA_TYPE_LOGINS@@3QBGB",
    "?DATA_TYPE_LOWCOOKIES@@3QBGB",
    "?DATA_TYPE_SETTINGS@@3QBGB",
    "?DebugBreak@details@wil@@YAXXZ",
    "?End@TelemetryHelper@@SAXXZ",
    "?FailFast_Unexpected@in1diag3@details@wil@@YAXPEAXIPEBD@Z",
    "?GetContextAndNotifyFailure@details@wil@@YAXPEAUFailureInfo@2@PEAD_K@Z",
    "?GetCookiesJson@DataStore@@QEAA?AV?$basic_string@GU?$char_traits@G@std@@V?$allocator@G@2@@std@@XZ",
    "?GetCurrentModuleName@details@wil@@YAPEBDXZ",
    "?GetDBVersion@ChromeDataStore@@AEAAXPEAUsqlite3@@PEA_J@Z",
    "?GetFailureLogString@wil@@YAJPEAG_KAEBUFailureInfo@1@@Z",
    "?GetFaviconImagesJson@DataStore@@QEAA?AV?$basic_string@GU?$char_traits@G@std@@V?$allocator@G@2@@std@@XZ",
    "?GetFaviconMappingsJson@DataStore@@QEAA?AV?$basic_string@GU?$char_traits@G@std@@V?$allocator@G@2@@std@@XZ",
    "?GetFormDataJson@DataStore@@QEAA?AV?$basic_string@GU?$char_traits@G@std@@V?$allocator@G@2@@std@@XZ",
    "?GetHistoryJson@DataStore@@QEAA?AV?$basic_string@GU?$char_traits@G@std@@V?$allocator@G@2@@std@@XZ",
    "?GetInPrivateFromBrowserSession@@YAJPEA_N@Z",
    "?GetJsonValue@CookieMigrationItem@@UEAA?BV?$basic_string@GU?$char_traits@G@std@@V?$allocator@G@2@@std@@XZ",
    "?GetJsonValue@FaviconImageMigrationItem@@UEAA?BV?$basic_string@GU?$char_traits@G@std@@V?$allocator@G@2@@std@@XZ",
    "?GetJsonValue@FaviconMappingMigrationItem@@UEAA?BV?$basic_string@GU?$char_traits@G@std@@V?$allocator@G@2@@std@@XZ",
    "?GetJsonValue@FormDataMigrationItem@@UEAA?BV?$basic_string@GU?$char_traits@G@std@@V?$allocator@G@2@@std@@XZ",
    "?GetJsonValue@HistoryMigrationItem@@UEAA?BV?$basic_string@GU?$char_traits@G@std@@V?$allocator@G@2@@std@@XZ",
    "?GetJsonValue@LoginMigrationItem@@UEAA?BV?$basic_string@GU?$char_traits@G@std@@V?$allocator@G@2@@std@@XZ",
    "?GetJsonValue@SettingMigrationItem@@UEAA?BV?$basic_string@GU?$char_traits@G@std@@V?$allocator@G@2@@std@@XZ",
    "?GetLastErrorFailHr@details@wil@@YAJXZ",
    "?GetLoginsJson@DataStore@@QEAA?AV?$basic_string@GU?$char_traits@G@std@@V?$allocator@G@2@@std@@XZ",
    "?GetLowCookiesJson@DataStore@@QEAA?AV?$basic_string@GU?$char_traits@G@std@@V?$allocator@G@2@@std@@XZ",
    "?GetModuleInformation@details@wil@@YA_NPEAXPEAIPEAD_K@Z",
    "?GetQueryList@ChromeQueryUtils@@SAAEBV?$vector@UQueryTuple@@V?$allocator@UQueryTuple@@@std@@@std@@W4ImportDataType@@@Z",
    "?GetSettingsJson@DataStore@@QEAA?AV?$basic_string@GU?$char_traits@G@std@@V?$allocator@G@2@@std@@XZ",
    "?GetSupportedQuery@ChromeQueryUtils@@SAPEBDW4ImportDataType@@_J@Z",
    "?GetThreadContext@ThreadFailureCallbackHolder@details@wil@@SA_NPEAUFailureInfo@3@PEAV123@PEAD_K@Z",
    "?GetThreadLocalDataCache@details_abi@wil@@YAPEAUThreadLocalData@12@_N@Z",
    "?GetValueFromSemaphore@SemaphoreValue@details_abi@wil@@CAJPEAXPEAJ@Z",
    "?IEKEY_IntelliForms_NormalStorage_Key@SettingStore@@3UKEYID@1@B",
    "?IEVALUE_Browser_DefaultDownloadDirectory@SettingStore@@3U?$VALUEID@PEAG@1@B",
    "?IEVALUE_IntelliForms_AutoComplete_Password@SettingStore@@3U?$VALUEID@H@1@B",
    "?IEVALUE_IntelliForms_NormalStorage_Blob@SettingStore@@3U?$EXTVALUE1ID@PEAE@1@B",
    "?IEVALUE_IntelliForms_UseFormSuggest@SettingStore@@3U?$VALUEID@H@1@B",
    "?IEVALUE_MINIE_LinksBandEnabled@SettingStore@@3U?$VALUEID@H@1@B",
    "?IEVALUE_PopupManager_Enabled@SettingStore@@3U?$VALUEID@H@1@B",
    "?IEVALUE_PrivacIE_DoNotTrack@SettingStore@@3U?$VALUEID@H@1@B",
    "?InitializeDataStore@@YAPEAVDataStore@@PEBG00@Z",
    "?LogCookieCount@TelemetryHelper@@SAXPEBDH@Z",
    "?LogDataStoreInitializationError@TelemetryHelper@@SAXPEBGPEBD@Z",
    "?LogException@TelemetryHelper@@SAXPEBD@Z",
    "?LogFailure@details@wil@@YAXPEAXIPEBD110W4FailureType@2@JPEBG_NPEAG_KPEAD6PEAUFailureInfo@2@@Z",
    "?LogFaviconImageCount@TelemetryHelper@@SAXPEBDH@Z",
    "?LogFaviconMappingCount@TelemetryHelper@@SAXPEBDH@Z",
    "?LogFormDataExportCount@TelemetryHelper@@SAXPEBDJH@Z",
    "?LogGetLowCookies@TelemetryHelper@@SAXPEBDJ@Z",
    "?LogHistoryCount@TelemetryHelper@@SAXPEBDH@Z",
    "?LogHistoryHeuristics@DataStore@@QEAAXXZ",
    "?LogHistoryHeuristics@TelemetryHelper@@SAXPEBDHHHHH@Z",
    "?LogLoginCount@TelemetryHelper@@SAXPEBDH@Z",
    "?LogOutputFileDetails@TelemetryHelper@@SAXH@Z",
    "?LogSelectedBrowser@TelemetryHelper@@SAXPEBG@Z",
    "?LogStartupArgs@TelemetryHelper@@SAXHQEAPEBG@Z",
    "?LogStartupError@TelemetryHelper@@SAXAEBV?$basic_string@GU?$char_traits@G@std@@V?$allocator@G@2@@std@@@Z",
    "?LogStringPrintf@details@wil@@YAPEAGPEAGPEBG1ZZ",
    "?MakeAndInitialize@?$ProcessLocalStorageData@UProcessLocalData@details_abi@wil@@@details_abi@wil@@CAJPEBG$$QEAV?$unique_any_t@V?$mutex_t@V?$unique_storage@U?$resource_policy@PEAXP6AXPEAX@Z$1?CloseHandle@details@wil@@YAX0@ZU?$integral_constant@_K$0A@@wistd@@PEAXPEAX$0A@$$T@details@wil@@@details@wil@@Uerr_returncode_policy@3@@wil@@@3@PEAPEAV123@@Z",
    "?RaiseException@Details@WRL@Microsoft@@YAXJK@Z",
    "?RecordException@details@wil@@YAHJ@Z",
    "?RecordFailFast@details@wil@@YAHJ@Z",
    "?RecordLog@details@wil@@YAHJ@Z",
    "?RecordReturn@details@wil@@YAHJ@Z",
    "?Release@?$ProcessLocalStorageData@UProcessLocalData@details_abi@wil@@@details_abi@wil@@QEAAXXZ",
    "?ReportFailure@details@wil@@YAXPEAXIPEBD110W4FailureType@2@JPEBGW4ReportFailureOptions@12@@Z",
    "?ReportFailure_GetLastError@details@wil@@YAKPEAXIPEBD110W4FailureType@2@@Z",
    "?ReportFailure_GetLastErrorHr@details@wil@@YAJPEAXIPEBD110W4FailureType@2@@Z",
    "?ReportFailure_Hr@details@wil@@YAXPEAXIPEBD110W4FailureType@2@J@Z",
    "?Rethrow@details@wil@@YAXXZ",
    "?Return_GetLastError@in1diag3@details@wil@@YAJPEAXIPEBD@Z",
    "?Return_Hr@in1diag3@details@wil@@YAXPEAXIPEBDJ@Z",
    "?RtlDllShutdownInProgress@details@wil@@YAEXZ",
    "?RuntimeClass_Windows_Data_Json_JsonObject@@3QBGB",
    "?RuntimeClass_Windows_Data_Json_JsonValue@@3QBGB",
    "?SendBrowserDetectionHeuristicTelemetry@@YAXPEBG0@Z",
    "?SetFailureInfo@StoredFailureInfo@wil@@QEAAXAEBUFailureInfo@2@@Z",
    "?SetLastError@ThreadLocalData@details_abi@wil@@QEAAXAEBUFailureInfo@3@@Z",
    "?StringCchCatW@@YAJPEAG_KPEBG@Z",
    "?StringCchPrintfA@details@wil@@YAJPEAD_KPEBDZZ",
    "?StringCchPrintfW@@YAJPEAG_KPEBGZZ",
    "?ThrowResultException@wil@@YAXAEBUFailureInfo@1@@Z",
    "?ThrowResultExceptionInternal@details@wil@@YAXAEBUFailureInfo@2@@Z",
    "?TryGetNextCookieItem@ChromeCookiesQueryResult@@QEAA_NPEAVCookieMigrationItem@@@Z",
    "?TryGetNextItem@ChromeFaviconImageQueryResult@@QEAA_NPEAVFaviconImageMigrationItem@@@Z",
    "?TryGetNextItem@QQBrowserFaviconImageQueryResult@@QEAA_NPEAVFaviconImageMigrationItem@@@Z",
    "?TryGetNextItem@Qihoo360SEFaviconImageQueryResult@@QEAA_NPEAVFaviconImageMigrationItem@@@Z",
    "?TryGetNextLoginItem@ChromeLoginQueryResult@@QEAA_NPEAVLoginMigrationItem@@@Z",
    "?TryGetValueInternal@SemaphoreValue@details_abi@wil@@CAJPEBG_NPEA_KPEA_N@Z",
    "?UTF8ToUTF16@@YAPEAGPEBDH@Z",
    "?WilDynamicLoadRaiseFailFastException@details@wil@@YAXPEAU_EXCEPTION_RECORD@@PEAU_CONTEXT@@K@Z",
    "?WilFailFast@details@wil@@YAXAEBUFailureInfo@2@@Z",
    "?WilRaiseFailFastException@details@wil@@YAXPEAU_EXCEPTION_RECORD@@PEAU_CONTEXT@@K@Z",
    "?_Change_array@?$vector@VFaviconMappingMigrationItem@@V?$allocator@VFaviconMappingMigrationItem@@@std@@@std@@AEAAXQEAVFaviconMappingMigrationItem@@_K1@Z",
    "?_Change_array@?$vector@VHistoryMigrationItem@@V?$allocator@VHistoryMigrationItem@@@std@@@std@@AEAAXQEAVHistoryMigrationItem@@_K1@Z",
    "?_Decref@facet@locale@std@@UEAAPEAV_Facet_base@3@XZ",
    "?_Destroy@?$vector@V?$basic_string@GU?$char_traits@G@std@@V?$allocator@G@2@@std@@V?$allocator@V?$basic_string@GU?$char_traits@G@std@@V?$allocator@G@2@@std@@@2@@std@@AEAAXPEAV?$basic_string@GU?$char_traits@G@std@@V?$allocator@G@2@@2@0@Z",
    "?_Destroy@?$vector@VCookieMigrationItem@@V?$allocator@VCookieMigrationItem@@@std@@@std@@AEAAXPEAVCookieMigrationItem@@0@Z",
    "?_Destroy@?$vector@VFaviconImageMigrationItem@@V?$allocator@VFaviconImageMigrationItem@@@std@@@std@@AEAAXPEAVFaviconImageMigrationItem@@0@Z",
    "?_Destroy@?$vector@VFaviconMappingMigrationItem@@V?$allocator@VFaviconMappingMigrationItem@@@std@@@std@@AEAAXPEAVFaviconMappingMigrationItem@@0@Z",
    "?_Destroy@?$vector@VFormDataMigrationItem@@V?$allocator@VFormDataMigrationItem@@@std@@@std@@AEAAXPEAVFormDataMigrationItem@@0@Z",
    "?_Destroy@?$vector@VHistoryMigrationItem@@V?$allocator@VHistoryMigrationItem@@@std@@@std@@AEAAXPEAVHistoryMigrationItem@@0@Z",
    "?_Destroy@?$vector@VLoginMigrationItem@@V?$allocator@VLoginMigrationItem@@@std@@@std@@AEAAXPEAVLoginMigrationItem@@0@Z",
    "?_Endwrite@?$basic_filebuf@GU?$char_traits@G@std@@@std@@IEAA_NXZ",
    "?_FailFastImmediate_Unexpected@in1diag3@details@wil@@YAXXZ",
    "?_FailFast_GetLastError@in1diag3@details@wil@@YAXPEAXIPEBD@Z",
    "?_FailFast_Hr@in1diag3@details@wil@@YAXPEAXIPEBDJ@Z",
    "?_GetCookies@ChromeDataStore@@EEAAXAEAV?$vector@VCookieMigrationItem@@V?$allocator@VCookieMigrationItem@@@std@@@std@@@Z",
    "?_GetCookies@IE11DataStore@@EEAAXAEAV?$vector@VCookieMigrationItem@@V?$allocator@VCookieMigrationItem@@@std@@@std@@@Z",
    "?_GetCookies@QQBrowserDataStore@@EEAAXAEAV?$vector@VCookieMigrationItem@@V?$allocator@VCookieMigrationItem@@@std@@@std@@@Z",
    "?_GetCookies@Qihoo360SEDataStore@@EEAAXAEAV?$vector@VCookieMigrationItem@@V?$allocator@VCookieMigrationItem@@@std@@@std@@@Z",
    "?_GetCookiesFromTempFile@IE11DataStore@@AEAAXPEAGAEAV?$vector@VCookieMigrationItem@@V?$allocator@VCookieMigrationItem@@@std@@@std@@@Z",
    "?_GetCookiesInternal@IE11DataStore@@AEAAXAEAV?$vector@VCookieMigrationItem@@V?$allocator@VCookieMigrationItem@@@std@@@std@@@Z",
    "?_GetFaviconImages@ChromeDataStore@@EEAAXAEAV?$vector@VFaviconImageMigrationItem@@V?$allocator@VFaviconImageMigrationItem@@@std@@@std@@@Z",
    "?_GetFaviconImages@IE11DataStore@@EEAAXAEAV?$vector@VFaviconImageMigrationItem@@V?$allocator@VFaviconImageMigrationItem@@@std@@@std@@@Z",
    "?_GetFaviconImages@QQBrowserDataStore@@EEAAXAEAV?$vector@VFaviconImageMigrationItem@@V?$allocator@VFaviconImageMigrationItem@@@std@@@std@@@Z",
    "?_GetFaviconImages@Qihoo360SEDataStore@@EEAAXAEAV?$vector@VFaviconImageMigrationItem@@V?$allocator@VFaviconImageMigrationItem@@@std@@@std@@@Z",
    "?_GetFaviconMappings@ChromeDataStore@@EEAAXAEAV?$vector@VFaviconMappingMigrationItem@@V?$allocator@VFaviconMappingMigrationItem@@@std@@@std@@@Z",
    "?_GetFaviconMappings@IE11DataStore@@EEAAXAEAV?$vector@VFaviconMappingMigrationItem@@V?$allocator@VFaviconMappingMigrationItem@@@std@@@std@@@Z",
    "?_GetFaviconMappings@QQBrowserDataStore@@EEAAXAEAV?$vector@VFaviconMappingMigrationItem@@V?$allocator@VFaviconMappingMigrationItem@@@std@@@std@@@Z",
    "?_GetFaviconMappings@Qihoo360SEDataStore@@EEAAXAEAV?$vector@VFaviconMappingMigrationItem@@V?$allocator@VFaviconMappingMigrationItem@@@std@@@std@@@Z",
    "?_GetFormData@ChromeDataStore@@EEAAXAEAV?$vector@VFormDataMigrationItem@@V?$allocator@VFormDataMigrationItem@@@std@@@std@@@Z",
    "?_GetFormData@IE11DataStore@@EEAAXAEAV?$vector@VFormDataMigrationItem@@V?$allocator@VFormDataMigrationItem@@@std@@@std@@@Z",
    "?_GetFormData@QQBrowserDataStore@@EEAAXAEAV?$vector@VFormDataMigrationItem@@V?$allocator@VFormDataMigrationItem@@@std@@@std@@@Z",
    "?_GetFormData@Qihoo360SEDataStore@@EEAAXAEAV?$vector@VFormDataMigrationItem@@V?$allocator@VFormDataMigrationItem@@@std@@@std@@@Z",
    "?_GetHistory@ChromeDataStore@@EEAAXAEAV?$vector@VHistoryMigrationItem@@V?$allocator@VHistoryMigrationItem@@@std@@@std@@@Z",
    "?_GetHistory@IE11DataStore@@EEAAXAEAV?$vector@VHistoryMigrationItem@@V?$allocator@VHistoryMigrationItem@@@std@@@std@@@Z",
    "?_GetHistory@QQBrowserDataStore@@EEAAXAEAV?$vector@VHistoryMigrationItem@@V?$allocator@VHistoryMigrationItem@@@std@@@std@@@Z",
    "?_GetHistory@Qihoo360SEDataStore@@EEAAXAEAV?$vector@VHistoryMigrationItem@@V?$allocator@VHistoryMigrationItem@@@std@@@std@@@Z",
    "?_GetLogins@ChromeDataStore@@EEAAXAEAV?$vector@VLoginMigrationItem@@V?$allocator@VLoginMigrationItem@@@std@@@std@@@Z",
    "?_GetLogins@IE11DataStore@@EEAAXAEAV?$vector@VLoginMigrationItem@@V?$allocator@VLoginMigrationItem@@@std@@@std@@@Z",
    "?_GetLogins@QQBrowserDataStore@@EEAAXAEAV?$vector@VLoginMigrationItem@@V?$allocator@VLoginMigrationItem@@@std@@@std@@@Z",
    "?_GetLogins@Qihoo360SEDataStore@@EEAAXAEAV?$vector@VLoginMigrationItem@@V?$allocator@VLoginMigrationItem@@@std@@@std@@@Z",
    "?_GetLowCookies@ChromeDataStore@@EEAAXAEAV?$vector@VCookieMigrationItem@@V?$allocator@VCookieMigrationItem@@@std@@@std@@@Z",
    "?_GetLowCookies@IE11DataStore@@EEAAXAEAV?$vector@VCookieMigrationItem@@V?$allocator@VCookieMigrationItem@@@std@@@std@@@Z",
    "?_GetLowCookies@QQBrowserDataStore@@EEAAXAEAV?$vector@VCookieMigrationItem@@V?$allocator@VCookieMigrationItem@@@std@@@std@@@Z",
    "?_GetLowCookies@Qihoo360SEDataStore@@EEAAXAEAV?$vector@VCookieMigrationItem@@V?$allocator@VCookieMigrationItem@@@std@@@std@@@Z",
    "?_GetLowCookiesFromLowProcess@IE11DataStore@@AEAAXAEAV?$vector@VCookieMigrationItem@@V?$allocator@VCookieMigrationItem@@@std@@@std@@@Z",
    "?_GetSettings@ChromeDataStore@@EEAAXAEAVSettingMigrationItem@@@Z",
    "?_GetSettings@IE11DataStore@@EEAAXAEAVSettingMigrationItem@@@Z",
    "?_GetSettings@QQBrowserDataStore@@EEAAXAEAVSettingMigrationItem@@@Z",
    "?_GetSettings@Qihoo360SEDataStore@@EEAAXAEAVSettingMigrationItem@@@Z",
    "?_GetTempFilePath@CachedFile@@CA?BV?$basic_string@GU?$char_traits@G@std@@V?$allocator@G@2@@std@@AEBV23@@Z",
    "?_Incref@facet@locale@std@@UEAAXXZ",
    "?_Initialize@ChromeDataStore@@AEAAXAEBV?$basic_string@GU?$char_traits@G@std@@V?$allocator@G@2@@std@@@Z",
    "?_Initialize@QQBrowserDataStore@@AEAAXAEBV?$basic_string@GU?$char_traits@G@std@@V?$allocator@G@2@@std@@@Z",
    "?_Initialize@Qihoo360SEDataStore@@AEAAXAEBV?$basic_string@GU?$char_traits@G@std@@V?$allocator@G@2@@std@@@Z",
    "?_JsonEscapeString@MigrationItem@@KA?BV?$basic_string@GU?$char_traits@G@std@@V?$allocator@G@2@@std@@AEBV23@@Z",
    "?_Lock@?$basic_filebuf@GU?$char_traits@G@std@@@std@@UEAAXXZ",
    "?_Lock@?$basic_streambuf@GU?$char_traits@G@std@@@std@@UEAAXXZ",
    "?_OptionsStorage@?1??__local_stdio_printf_options@@9@4_KA",
    "?_OptionsStorage@?1??__local_stdio_scanf_options@@9@4_KA",
    "?_PrepareQueryResult@DataStore@@KAXPEAUsqlite3@@PEBDPEAVQueryResult@@@Z",
    "?_Psave@?$_Facetptr@V?$codecvt@GDU_Mbstatet@@@std@@@std@@2PEBVfacet@locale@2@EB",
    "?_Psave@?$_Facetptr@V?$ctype@G@std@@@std@@2PEBVfacet@locale@2@EB",
    "?_SerializeBooleanValue@MigrationItem@@KA?BV?$basic_string@GU?$char_traits@G@std@@V?$allocator@G@2@@std@@_N@Z",
    "?_Stinit@?1??_Init@?$basic_filebuf@GU?$char_traits@G@std@@@std@@IEAAXPEAU_iobuf@@W4_Initfl@23@@Z@4U_Mbstatet@@A",
    "?_Tidy@?$vector@UQueryTuple@@V?$allocator@UQueryTuple@@@std@@@std@@AEAAXXZ",
    "?_Unlock@?$basic_filebuf@GU?$char_traits@G@std@@@std@@UEAAXXZ",
    "?_Unlock@?$basic_streambuf@GU?$char_traits@G@std@@@std@@UEAAXXZ",
    "?_Xlen@?$basic_string@DU?$char_traits@D@std@@V?$allocator@D@2@@std@@SAXXZ",
    "?_Xlen@?$basic_string@GU?$char_traits@G@std@@V?$allocator@G@2@@std@@SAXXZ",
    "?_Xlength@?$vector@PEAVDataStore@@V?$allocator@PEAVDataStore@@@std@@@std@@CAXXZ",
    "?_Xlength@?$vector@UQueryTuple@@V?$allocator@UQueryTuple@@@std@@@std@@CAXXZ",
    "?_Xlength@?$vector@V?$basic_string@GU?$char_traits@G@std@@V?$allocator@G@2@@std@@V?$allocator@V?$basic_string@GU?$char_traits@G@std@@V?$allocator@G@2@@std@@@2@@std@@CAXXZ",
    "?_Xlength@?$vector@VCookieMigrationItem@@V?$allocator@VCookieMigrationItem@@@std@@@std@@CAXXZ",
    "?_Xlength@?$vector@VFaviconImageMigrationItem@@V?$allocator@VFaviconImageMigrationItem@@@std@@@std@@CAXXZ",
    "?_Xlength@?$vector@VFaviconMappingMigrationItem@@V?$allocator@VFaviconMappingMigrationItem@@@std@@@std@@CAXXZ",
    "?_Xlength@?$vector@VFormDataMigrationItem@@V?$allocator@VFormDataMigrationItem@@@std@@@std@@CAXXZ",
    "?_Xlength@?$vector@VHistoryMigrationItem@@V?$allocator@VHistoryMigrationItem@@@std@@@std@@CAXXZ",
    "?_Xlength@?$vector@VLoginMigrationItem@@V?$allocator@VLoginMigrationItem@@@std@@@std@@CAXXZ",
    "?__scrt_initialize_type_info@@YAXXZ",
    "?__scrt_throw_std_bad_alloc@@YAXXZ",
    "?__scrt_throw_std_bad_array_new_length@@YAXXZ",
    "?__type_info_root_node@@3U__type_info_node@@A",
    "?allocate@?$allocator@G@std@@QEAAPEAG_K@Z",
    "?append@?$basic_string@GU?$char_traits@G@std@@V?$allocator@G@2@@std@@QEAAAEAV12@QEBG@Z",
    "?close@?$basic_filebuf@GU?$char_traits@G@std@@@std@@QEAAPEAV12@XZ",
    "?create@?$semaphore_t@V?$unique_storage@U?$resource_policy@PEAXP6AXPEAX@Z$1?CloseHandle@details@wil@@YAX0@ZU?$integral_constant@_K$0A@@wistd@@PEAXPEAX$0A@$$T@details@wil@@@details@wil@@Uerr_returncode_policy@3@@wil@@QEAAJJJPEBGKPEAU_SECURITY_ATTRIBUTES@@@Z",
    "?create@shared_buffer@details@wil@@QEAA_NPEBX_K@Z",
    "?deallocate@?$allocator@PEAVDataStore@@@std@@QEAAXQEAPEAVDataStore@@_K@Z",
    "?deallocate@?$allocator@V?$basic_string@GU?$char_traits@G@std@@V?$allocator@G@2@@std@@@std@@QEAAXQEAV?$basic_string@GU?$char_traits@G@std@@V?$allocator@G@2@@2@_K@Z",
    "?deallocate@?$allocator@VCookieMigrationItem@@@std@@QEAAXQEAVCookieMigrationItem@@_K@Z",
    "?deallocate@?$allocator@VFaviconImageMigrationItem@@@std@@QEAAXQEAVFaviconImageMigrationItem@@_K@Z",
    "?deallocate@?$allocator@VFaviconMappingMigrationItem@@@std@@QEAAXQEAVFaviconMappingMigrationItem@@_K@Z",
    "?deallocate@?$allocator@VFormDataMigrationItem@@@std@@QEAAXQEAVFormDataMigrationItem@@_K@Z",
    "?deallocate@?$allocator@VHistoryMigrationItem@@@std@@QEAAXQEAVHistoryMigrationItem@@_K@Z",
    "?deallocate@?$allocator@VLoginMigrationItem@@@std@@QEAAXQEAVLoginMigrationItem@@_K@Z",
    "?depth@?4??SetLastError@wil@@YAXAEBUFailureInfo@2@@Z@4JC",
    "?do_always_noconv@?$codecvt_utf8@G$0BAPPPP@$0A@@std@@MEBA_NXZ",
    "?do_encoding@?$codecvt_utf8@G$0BAPPPP@$0A@@std@@MEBAHXZ",
    "?do_in@?$codecvt_utf8@G$0BAPPPP@$0A@@std@@MEBAHAEAU_Mbstatet@@PEBD1AEAPEBDPEAG3AEAPEAG@Z",
    "?do_length@?$codecvt_utf8@G$0BAPPPP@$0A@@std@@MEBAHAEAU_Mbstatet@@PEBD1_K@Z",
    "?do_max_length@?$codecvt_utf8@G$0BAPPPP@$0A@@std@@MEBAHXZ",
    "?do_out@?$codecvt_utf8@G$0BAPPPP@$0A@@std@@MEBAHAEAU_Mbstatet@@PEBG1AEAPEBGPEAD3AEAPEAD@Z",
    "?do_unshift@?$codecvt_utf8@G$0BAPPPP@$0A@@std@@MEBAHAEAU_Mbstatet@@PEAD1AEAPEAD@Z",
    "?g_fBreakOnFailure@wil@@3_NA",
    "?g_fIsDebuggerPresent@wil@@3_NA",
    "?g_pProcessLocalData@details_abi@wil@@3PEAV?$ProcessLocalStorage@UProcessLocalData@details_abi@wil@@@12@EA",
    "?g_pThreadFailureCallbacks@details@wil@@3PEAV?$ThreadLocalStorage@PEAVThreadFailureCallbackHolder@details@wil@@@details_abi@2@EA",
    "?g_pfnDebugBreak@details@wil@@3P6AXXZEA",
    "?g_pfnGetContextAndNotifyFailure@details@wil@@3P6AXPEAUFailureInfo@2@PEAD_K@ZEA",
    "?g_pfnGetModuleName@details@wil@@3P6APEBDXZEA",
    "?g_pfnIsDebuggerPresent@wil@@3P6A_NXZEA",
    "?g_pfnLoggingCallback@details@wil@@3P6AXAEBUFailureInfo@2@@ZEA",
    "?g_pfnOriginateCallback@details@wil@@3P6AXAEBUFailureInfo@2@@ZEA",
    "?g_pfnRaiseFailFastException@details@wil@@3P6AXPEAU_EXCEPTION_RECORD@@PEAU_CONTEXT@@K@ZEA",
    "?g_pfnRethrow@details@wil@@3P6AXXZEA",
    "?g_pfnRtlDllShutdownInProgress@details@wil@@3P6AEXZEA",
    "?g_pfnTelemetryCallback@details@wil@@3P6AX_NAEBUFailureInfo@2@@ZEA",
    "?g_pfnThrowResultException@details@wil@@3P6AXAEBUFailureInfo@2@@ZEA",
    "?g_pfnWilFailFast@wil@@3P6A_NAEBUFailureInfo@1@@ZEA",
    "?g_processLocalData@details@wil@@3V?$ProcessLocalStorage@UProcessLocalData@details_abi@wil@@@details_abi@2@A",
    "?g_processShutdownInProgress@details@wil@@3_NA",
    "?g_resultMessageCallbackSet@details@wil@@3_NA",
    "?g_threadFailureCallbacks@details@wil@@3V?$ThreadLocalStorage@PEAVThreadFailureCallbackHolder@details@wil@@@details_abi@2@A",
    "?g_wil_details_ntdllModuleHandle@@3PEAUHINSTANCE__@@EA",
    "?hex@std@@YAAEAVios_base@1@AEAV21@@Z",
    "?imbue@?$basic_filebuf@GU?$char_traits@G@std@@@std@@MEAAXAEBVlocale@2@@Z",
    "?imbue@?$basic_streambuf@GU?$char_traits@G@std@@@std@@MEAAXAEBVlocale@2@@Z",
    "?lastThread@?1??SetLastError@wil@@YAXAEBUFailureInfo@2@@Z@4IC",
    "?open@?$basic_filebuf@GU?$char_traits@G@std@@@std@@QEAAPEAV12@PEBGHH@Z",
    "?overflow@?$basic_filebuf@GU?$char_traits@G@std@@@std@@MEAAGG@Z",
    "?overflow@?$basic_stringbuf@GU?$char_traits@G@std@@V?$allocator@G@2@@std@@MEAAGG@Z",
    "?pbackfail@?$basic_filebuf@GU?$char_traits@G@std@@@std@@MEAAGG@Z",
    "?pbackfail@?$basic_stringbuf@GU?$char_traits@G@std@@V?$allocator@G@2@@std@@MEAAGG@Z",
    "?s_UserInputId@TelemetryHelper@@0U_GUID@@A",
    "?s_cErrorCount@?1??RecordException@details@wil@@YAHJ@Z@4JC",
    "?s_cErrorCount@?1??RecordLog@details@wil@@YAHJ@Z@4JC",
    "?s_cErrorCount@?1??RecordReturn@details@wil@@YAHJ@Z@4JC",
    "?s_chBase64EncodingTable@?1??Base64Encode@ATL@@YAHPEBEHPEADPEAHK@Z@4QBDB",
    "?s_fModuleValid@?1??GetCurrentModuleName@details@wil@@YAPEBDXZ@4_NC",
    "?s_failureId@?1??LogFailure@details@wil@@YAXPEAXIPEBD110W4FailureType@3@JPEBG_NPEAG_KPEAD6PEAUFailureInfo@3@@Z@4JC",
    "?s_hrErrorLast@?1??RecordException@details@wil@@YAHJ@Z@4JC",
    "?s_hrErrorLast@?1??RecordFailFast@details@wil@@YAHJ@Z@4JC",
    "?s_hrErrorLast@?1??RecordLog@details@wil@@YAHJ@Z@4JC",
    "?s_hrErrorLast@?1??RecordReturn@details@wil@@YAHJ@Z@4JC",
    "?s_pfnRtlDllShutdownInProgress@?1??RtlDllShutdownInProgress@details@wil@@YAEXZ@4P6AEXZEA",
    "?s_szModule@?1??GetCurrentModuleName@details@wil@@YAPEBDXZ@4PADA",
    "?s_telemetryId@ThreadFailureCallbackHolder@details@wil@@0JC",
    "?seekoff@?$basic_filebuf@GU?$char_traits@G@std@@@std@@MEAA?AV?$fpos@U_Mbstatet@@@2@_JHH@Z",
    "?seekoff@?$basic_stringbuf@GU?$char_traits@G@std@@V?$allocator@G@2@@std@@MEAA?AV?$fpos@U_Mbstatet@@@2@_JHH@Z",
    "?seekpos@?$basic_filebuf@GU?$char_traits@G@std@@@std@@MEAA?AV?$fpos@U_Mbstatet@@@2@V32@H@Z",
    "?seekpos@?$basic_stringbuf@GU?$char_traits@G@std@@V?$allocator@G@2@@std@@MEAA?AV?$fpos@U_Mbstatet@@@2@V32@H@Z",
    "?setbuf@?$basic_filebuf@GU?$char_traits@G@std@@@std@@MEAAPEAV?$basic_streambuf@GU?$char_traits@G@std@@@2@PEAG_J@Z",
    "?setbuf@?$basic_streambuf@GU?$char_traits@G@std@@@std@@MEAAPEAV12@PEAG_J@Z",
    "?showmanyc@?$basic_streambuf@GU?$char_traits@G@std@@@std@@MEAA_JXZ",
    "?str@?$basic_stringstream@GU?$char_traits@G@std@@V?$allocator@G@2@@std@@QEBA?AV?$basic_string@GU?$char_traits@G@std@@V?$allocator@G@2@@2@XZ",
    "?sync@?$basic_filebuf@GU?$char_traits@G@std@@@std@@MEAAHXZ",
    "?sync@?$basic_streambuf@GU?$char_traits@G@std@@@std@@MEAAHXZ",
    "?to_string@std@@YA?AV?$basic_string@DU?$char_traits@D@std@@V?$allocator@D@2@@1@H@Z",
    "?to_string@std@@YA?AV?$basic_string@DU?$char_traits@D@std@@V?$allocator@D@2@@1@K@Z",
    "?to_wstring@std@@YA?AV?$basic_string@GU?$char_traits@G@std@@V?$allocator@G@2@@1@H@Z",
    "?uflow@?$basic_filebuf@GU?$char_traits@G@std@@@std@@MEAAGXZ",
    "?uflow@?$basic_streambuf@GU?$char_traits@G@std@@@std@@MEAAGXZ",
    "?underflow@?$basic_filebuf@GU?$char_traits@G@std@@@std@@MEAAGXZ",
    "?underflow@?$basic_stringbuf@GU?$char_traits@G@std@@V?$allocator@G@2@@std@@MEAAGXZ",
    "?what@ResultException@wil@@UEBAPEBDXZ",
    "?what@exception@std@@UEBAPEBDXZ",
    "?xsgetn@?$basic_filebuf@GU?$char_traits@G@std@@@std@@MEAA_JPEAG_J@Z",
    "?xsgetn@?$basic_streambuf@GU?$char_traits@G@std@@@std@@MEAA_JPEAG_J@Z",
    "?xsputn@?$basic_filebuf@GU?$char_traits@G@std@@@std@@MEAA_JPEBG_J@Z",
    "?xsputn@?$basic_streambuf@GU?$char_traits@G@std@@@std@@MEAA_JPEBG_J@Z",
    "BROWSERPROFILEDATA_FILEPATH_GUID_LowCookiesMigration",
    "CLSID_CUrlHistory",
    "FOLDERID_LocalAppData",
    "FOLDERID_RoamingAppData",
    "GUID_NULL",
    "GetBOOL",
    "GetCurrentProcessId",
    "IEKEY_GUID_IntelliForms_NormalStorage_Key",
    "IEVALUE_GUID_Browser_DefaultDownloadDirectory",
    "IEVALUE_GUID_IntelliForms_AutoComplete_Password",
    "IEVALUE_GUID_IntelliForms_NormalStorage_Blob",
    "IEVALUE_GUID_IntelliForms_UseFormSuggest",
    "IEVALUE_GUID_MINIE_LinksBandEnabled",
    "IEVALUE_GUID_PopupManager_Enabled",
    "IEVALUE_GUID_PrivacIE_DoNotTrack",
    "IID_IUrlHistoryStg",
    "_CT??_R0?AVCAtlException@ATL@@@84",
    "_CT??_R0?AVResultException@wil@@@8??0ResultException@wil@@QEAA@AEBV01@@Z200",
    "_CT??_R0?AVbad_alloc@std@@@8??0bad_alloc@std@@QEAA@AEBV01@@Z24",
    "_CT??_R0?AVbad_array_new_length@std@@@8??0bad_array_new_length@std@@QEAA@AEBV01@@Z24",
    "_CT??_R0?AVbad_cast@std@@@8??0bad_cast@std@@QEAA@AEBV01@@Z24",
    "_CT??_R0?AVexception@std@@@8??0exception@std@@QEAA@AEBV01@@Z24",
    "_CT??_R0?AVinvalid_argument@std@@@8??0invalid_argument@std@@QEAA@AEBV01@@Z24",
    "_CT??_R0?AVlogic_error@std@@@8??0logic_error@std@@QEAA@AEBV01@@Z24",
    "_CT??_R0?AVruntime_error@std@@@8??0runtime_error@std@@QEAA@AEBV01@@Z24",
    "_CTA1?AVCAtlException@ATL@@",
    "_CTA2?AVResultException@wil@@",
    "_CTA2?AVbad_alloc@std@@",
    "_CTA2?AVbad_cast@std@@",
    "_CTA2?AVruntime_error@std@@",
    "_CTA3?AVbad_array_new_length@std@@",
    "_CTA3?AVinvalid_argument@std@@",
    "_CxxThrowException",
    "_GUID_2289f159_54de_45d8_abcc_22603fa066a0",
    "_GUID_5f6b544a_2f53_48e1_91a3_f78b50a6345c",
    "_RTC_Initialize",
    "_RTC_Terminate",
    "_TI1?AVCAtlException@ATL@@",
    "_TI2?AVResultException@wil@@",
    "_TI2?AVbad_alloc@std@@",
    "_TI2?AVbad_cast@std@@",
    "_TI2?AVruntime_error@std@@",
    "_TI3?AVbad_array_new_length@std@@",
    "_TI3?AVinvalid_argument@std@@",
    "_TlgDefineProvider_annotation__Tlgg_hAsimovProviderProv",
    "_TlgEnableCallback",
    "_TlgWrite",
    "_TraceLoggingMetadata",
    "_TraceLoggingMetadataEnd",
    "__C_specific_handler",
    "__CxxFrameHandler3",
    "__GSHandlerCheck",
    "__GSHandlerCheckCommon",
    "__GSHandlerCheck_EH",
    "__IMPORT_DESCRIPTOR_CRYPT32",
    "__IMPORT_DESCRIPTOR_WININET",
    "__IMPORT_DESCRIPTOR_api-ms-win-core-com-l1-1-0",
    "__IMPORT_DESCRIPTOR_api-ms-win-core-debug-l1-1-0",
    "__IMPORT_DESCRIPTOR_api-ms-win-core-errorhandling-l1-1-0",
    "__IMPORT_DESCRIPTOR_api-ms-win-core-file-l1-1-0",
    "__IMPORT_DESCRIPTOR_api-ms-win-core-file-l1-2-0",
    "__IMPORT_DESCRIPTOR_api-ms-win-core-file-l2-1-2",
    "__IMPORT_DESCRIPTOR_api-ms-win-core-handle-l1-1-0",
    "__IMPORT_DESCRIPTOR_api-ms-win-core-heap-l1-1-0",
    "__IMPORT_DESCRIPTOR_api-ms-win-core-heap-l2-1-0",
    "__IMPORT_DESCRIPTOR_api-ms-win-core-interlocked-l1-1-0",
    "__IMPORT_DESCRIPTOR_api-ms-win-core-libraryloader-l1-2-0",
    "__IMPORT_DESCRIPTOR_api-ms-win-core-localization-l1-2-0",
    "__IMPORT_DESCRIPTOR_api-ms-win-core-path-l1-1-0",
    "__IMPORT_DESCRIPTOR_api-ms-win-core-processthreads-l1-1-0",
    "__IMPORT_DESCRIPTOR_api-ms-win-core-processthreads-l1-1-1",
    "__IMPORT_DESCRIPTOR_api-ms-win-core-profile-l1-1-0",
    "__IMPORT_DESCRIPTOR_api-ms-win-core-rtlsupport-l1-1-0",
    "__IMPORT_DESCRIPTOR_api-ms-win-core-string-l1-1-0",
    "__IMPORT_DESCRIPTOR_api-ms-win-core-synch-l1-1-0",
    "__IMPORT_DESCRIPTOR_api-ms-win-core-sysinfo-l1-1-0",
    "__IMPORT_DESCRIPTOR_api-ms-win-core-winrt-l1-1-0",
    "__IMPORT_DESCRIPTOR_api-ms-win-core-winrt-string-l1-1-0",
    "__IMPORT_DESCRIPTOR_api-ms-win-crt-private-l1-1-0",
    "__IMPORT_DESCRIPTOR_api-ms-win-crt-runtime-l1-1-0",
    "__IMPORT_DESCRIPTOR_api-ms-win-crt-string-l1-1-0",
    "__IMPORT_DESCRIPTOR_api-ms-win-crt-time-l1-1-0",
    "__IMPORT_DESCRIPTOR_api-ms-win-eventing-provider-l1-1-0",
    "__IMPORT_DESCRIPTOR_api-ms-win-security-base-l1-1-0",
    "__IMPORT_DESCRIPTOR_api-ms-win-shell-shellfolders-l1-1-0",
    "__IMPORT_DESCRIPTOR_iertutil",
    "__IMPORT_DESCRIPTOR_msIso",
    "__IMPORT_DESCRIPTOR_msvcp_win",
    "__IMPORT_DESCRIPTOR_winsqlite3",
    "__NULL_IMPORT_DESCRIPTOR",
    "__PLEASE_LINK_WITH_legacy_stdio_wide_specifiers.lib",
    "__acrt_initialize",
    "__acrt_uninitialize",
    "__chkstk",
    "__crt_debugger_hook",
    "__dyn_tls_dtor_callback",
    "__dyn_tls_init_callback",
    "__enclave_config",
    "__favor",
    "__guard_check_icall_fptr",
    "__guard_dispatch_icall_fptr",
    "__guard_fids_count",
    "__guard_fids_table",
    "__guard_flags",
    "__guard_iat_count",
    "__guard_iat_table",
    "__guard_longjmp_count",
    "__guard_longjmp_table",
    "__imp_??0?$basic_ios@GU?$char_traits@G@std@@@std@@IEAA@XZ",
    "__imp_??0?$basic_iostream@GU?$char_traits@G@std@@@std@@QEAA@PEAV?$basic_streambuf@GU?$char_traits@G@std@@@1@@Z",
    "__imp_??0?$basic_istream@GU?$char_traits@G@std@@@std@@QEAA@PEAV?$basic_streambuf@GU?$char_traits@G@std@@@1@_N@Z",
    "__imp_??0?$basic_ostream@GU?$char_traits@G@std@@@std@@QEAA@PEAV?$basic_streambuf@GU?$char_traits@G@std@@@1@_N@Z",
    "__imp_??0?$basic_streambuf@GU?$char_traits@G@std@@@std@@IEAA@XZ",
    "__imp_??0?$codecvt@GDU_Mbstatet@@@std@@QEAA@_K@Z",
    "__imp_??0_Lockit@std@@QEAA@H@Z",
    "__imp_??1?$basic_ios@GU?$char_traits@G@std@@@std@@UEAA@XZ",
    "__imp_??1?$basic_iostream@GU?$char_traits@G@std@@@std@@UEAA@XZ",
    "__imp_??1?$basic_istream@GU?$char_traits@G@std@@@std@@UEAA@XZ",
    "__imp_??1?$basic_ostream@GU?$char_traits@G@std@@@std@@UEAA@XZ",
    "__imp_??1?$basic_streambuf@GU?$char_traits@G@std@@@std@@UEAA@XZ",
    "__imp_??1?$codecvt@GDU_Mbstatet@@@std@@MEAA@XZ",
    "__imp_??1_Lockit@std@@QEAA@XZ",
    "__imp_??4?$_Yarn@D@std@@QEAAAEAV01@PEBD@Z",
    "__imp_??6?$basic_ostream@GU?$char_traits@G@std@@@std@@QEAAAEAV01@H@Z",
    "__imp_??6?$basic_ostream@GU?$char_traits@G@std@@@std@@QEAAAEAV01@P6AAEAVios_base@1@AEAV21@@Z@Z",
    "__imp_??6?$basic_ostream@GU?$char_traits@G@std@@@std@@QEAAAEAV01@PEAV?$basic_streambuf@GU?$char_traits@G@std@@@1@@Z",
    "__imp_??6?$basic_ostream@GU?$char_traits@G@std@@@std@@QEAAAEAV01@_J@Z",
    "__imp_??Bid@locale@std@@QEAA_KXZ",
    "__imp_?GlobalThreadState@@YAPEAUIE_GLOBAL_THREAD_STATE@@XZ",
    "__imp_?IEConfiguration_GetBool@@YA_NW4IEConfigurationID@@@Z",
    "__imp_?IEConfiguration_GetCLSID@@YAPEBU_GUID@@W4IEConfigurationID@@@Z",
    "__imp_?IEConfiguration_GetDWORD@@YAKW4IEConfigurationID@@@Z",
    "__imp_?LCIEIsCurrentProcessInPrivate@@YA_NXZ",
    "__imp_?LCIEIsCurrentProcessInPrivateOverrideSet@@YA_NXZ",
    "__imp_?LCIEIsCurrentProcessUsingInPrivateComponents@@YA_NXZ",
    "__imp_?_Addfac@_Locimp@locale@std@@AEAAXPEAVfacet@23@_K@Z",
    "__imp_?_Decref@facet@locale@std@@UEAAPEAV_Facet_base@3@XZ",
    "__imp_?_Fiopen@std@@YAPEAU_iobuf@@PEBGHH@Z",
    "__imp_?_Getcat@?$codecvt@GDU_Mbstatet@@@std@@SA_KPEAPEBVfacet@locale@2@PEBV42@@Z",
    "__imp_?_Getcat@?$ctype@G@std@@SA_KPEAPEBVfacet@locale@2@PEBV42@@Z",
    "__imp_?_Getgloballocale@locale@std@@CAPEAV_Locimp@12@XZ",
    "__imp_?_Gndec@?$basic_streambuf@GU?$char_traits@G@std@@@std@@IEAAPEAGXZ",
    "__imp_?_Incref@facet@locale@std@@UEAAXXZ",
    "__imp_?_Init@?$basic_streambuf@GU?$char_traits@G@std@@@std@@IEAAXXZ",
    "__imp_?_Init@locale@std@@CAPEAV_Locimp@12@_N@Z",
    "__imp_?_Lock@?$basic_streambuf@GU?$char_traits@G@std@@@std@@UEAAXXZ",
    "__imp_?_New_Locimp@_Locimp@locale@std@@CAPEAV123@AEBV123@@Z",
    "__imp_?_Osfx@?$basic_ostream@GU?$char_traits@G@std@@@std@@QEAAXXZ",
    "__imp_?_Pninc@?$basic_streambuf@GU?$char_traits@G@std@@@std@@IEAAPEAGXZ",
    "__imp_?_Unlock@?$basic_streambuf@GU?$char_traits@G@std@@@std@@UEAAXXZ",
    "__imp_?_Xlength_error@std@@YAXPEBD@Z",
    "__imp_?always_noconv@codecvt_base@std@@QEBA_NXZ",
    "__imp_?clear@?$basic_ios@GU?$char_traits@G@std@@@std@@QEAAXH_N@Z",
    "__imp_?flush@?$basic_ostream@GU?$char_traits@G@std@@@std@@QEAAAEAV12@XZ",
    "__imp_?gbump@?$basic_streambuf@GU?$char_traits@G@std@@@std@@IEAAXH@Z",
    "__imp_?getloc@?$basic_streambuf@GU?$char_traits@G@std@@@std@@QEBA?AVlocale@2@XZ",
    "__imp_?getloc@ios_base@std@@QEBA?AVlocale@2@XZ",
    "__imp_?id@?$codecvt@GDU_Mbstatet@@@std@@2V0locale@2@A",
    "__imp_?id@?$ctype@G@std@@2V0locale@2@A",
    "__imp_?imbue@?$basic_ios@GU?$char_traits@G@std@@@std@@QEAA?AVlocale@2@AEBV32@@Z",
    "__imp_?imbue@?$basic_streambuf@GU?$char_traits@G@std@@@std@@MEAAXAEBVlocale@2@@Z",
    "__imp_?in@?$codecvt@GDU_Mbstatet@@@std@@QEBAHAEAU_Mbstatet@@PEBD1AEAPEBDPEAG3AEAPEAG@Z",
    "__imp_?out@?$codecvt@GDU_Mbstatet@@@std@@QEBAHAEAU_Mbstatet@@PEBG1AEAPEBGPEAD3AEAPEAD@Z",
    "__imp_?setbuf@?$basic_streambuf@GU?$char_traits@G@std@@@std@@MEAAPEAV12@PEAG_J@Z",
    "__imp_?setstate@?$basic_ios@GU?$char_traits@G@std@@@std@@QEAAXH_N@Z",
    "__imp_?setw@std@@YA?AU?$_Smanip@_J@1@_J@Z",
    "__imp_?showmanyc@?$basic_streambuf@GU?$char_traits@G@std@@@std@@MEAA_JXZ",
    "__imp_?sputc@?$basic_streambuf@GU?$char_traits@G@std@@@std@@QEAAGG@Z",
    "__imp_?sputn@?$basic_streambuf@GU?$char_traits@G@std@@@std@@QEAA_JPEBG_J@Z",
    "__imp_?sync@?$basic_streambuf@GU?$char_traits@G@std@@@std@@MEAAHXZ",
    "__imp_?uflow@?$basic_streambuf@GU?$char_traits@G@std@@@std@@MEAAGXZ",
    "__imp_?uncaught_exception@std@@YA_NXZ",
    "__imp_?unshift@?$codecvt@GDU_Mbstatet@@@std@@QEBAHAEAU_Mbstatet@@PEAD1AEAPEAD@Z",
    "__imp_?widen@?$ctype@G@std@@QEBAGD@Z",
    "__imp_?xsgetn@?$basic_streambuf@GU?$char_traits@G@std@@@std@@MEAA_JPEAG_J@Z",
    "__imp_?xsputn@?$basic_streambuf@GU?$char_traits@G@std@@@std@@MEAA_JPEBG_J@Z",
    "__imp_CloseHandle",
    "__imp_CoCreateInstance",
    "__imp_CoInitializeEx",
    "__imp_CoTaskMemAlloc",
    "__imp_CoTaskMemFree",
    "__imp_CopyFileW",
    "__imp_CreateFile2",
    "__imp_CreateMutexExW",
    "__imp_CreateProcessAsUserW",
    "__imp_CreateSemaphoreExW",
    "__imp_CryptUnprotectData",
    "__imp_DebugBreak",
    "__imp_DeleteFileW",
    "__imp_DuplicateTokenEx",
    "__imp_EnumInHiveValue",
    "__imp_EventRegister",
    "__imp_EventSetInformation",
    "__imp_EventUnregister",
    "__imp_EventWriteEx",
    "__imp_EventWriteTransfer",
    "__imp_FindClose",
    "__imp_FindFirstFileW",
    "__imp_FormatMessageW",
    "__imp_GetBrowserProfileDataFilePath",
    "__imp_GetCurrentProcess",
    "__imp_GetCurrentProcessId",
    "__imp_GetCurrentThreadId",
    "__imp_GetFileSize",
    "__imp_GetInHiveExtValue",
    "__imp_GetLastError",
    "__imp_GetModuleFileNameA",
    "__imp_GetModuleHandleExW",
    "__imp_GetModuleHandleW",
    "__imp_GetProcAddress",
    "__imp_GetProcessHeap",
    "__imp_GetSidLengthRequired",
    "__imp_GetSidSubAuthority",
    "__imp_GetSystemTimeAsFileTime",
    "__imp_GetTempPathW",
    "__imp_GetTokenInformation",
    "__imp_GetValue",
    "__imp_HeapAlloc",
    "__imp_HeapFree",
    "__imp_IIDFromString",
    "__imp_InitializeSListHead",
    "__imp_InitializeSid",
    "__imp_InternetFreeCookies",
    "__imp_InternetGetCookieEx2",
    "__imp_IsDebuggerPresent",
    "__imp_IsProcessorFeaturePresent",
    "__imp_LocalAlloc",
    "__imp_LocalFree",
    "__imp_MultiByteToWideChar",
    "__imp_OpenProcessToken",
    "__imp_OpenSemaphoreW",
    "__imp_OutputDebugStringW",
    "__imp_PathCchAppend",
    "__imp_QueryPerformanceCounter",
    "__imp_RaiseException",
    "__imp_ReadFile",
    "__imp_ReleaseMutex",
    "__imp_ReleaseSemaphore",
    "__imp_RoGetActivationFactory",
    "__imp_RtlCaptureContext",
    "__imp_RtlLookupFunctionEntry",
    "__imp_RtlVirtualUnwind",
    "__imp_SHGetKnownFolderPath",
    "__imp_SetFileAttributesW",
    "__imp_SetLastError",
    "__imp_SetTokenInformation",
    "__imp_SetUnhandledExceptionFilter",
    "__imp_TerminateProcess",
    "__imp_UnhandledExceptionFilter",
    "__imp_WaitForSingleObject",
    "__imp_WaitForSingleObjectEx",
    "__imp_WideCharToMultiByte",
    "__imp_WindowsCreateStringReference",
    "__imp_WindowsDeleteString",
    "__imp_WindowsGetStringRawBuffer",
    "__imp__CxxThrowException",
    "__imp___C_specific_handler",
    "__imp___CxxFrameHandler3",
    "__imp___p___argc",
    "__imp___p___wargv",
    "__imp___p__commode",
    "__imp___std_exception_copy",
    "__imp___std_exception_destroy",
    "__imp___std_terminate",
    "__imp___stdio_common_vsnprintf_s",
    "__imp___stdio_common_vswprintf",
    "__imp__c_exit",
    "__imp__callnewh",
    "__imp__cexit",
    "__imp__configthreadlocale",
    "__imp__configure_wide_argv",
    "__imp__crt_atexit",
    "__imp__errno",
    "__imp__exit",
    "__imp__fseeki64",
    "__imp__get_initial_wide_environment",
    "__imp__initialize_onexit_table",
    "__imp__initialize_wide_environment",
    "__imp__initterm",
    "__imp__initterm_e",
    "__imp__invalid_parameter_noinfo",
    "__imp__invalid_parameter_noinfo_noreturn",
    "__imp__lock_file",
    "__imp__o___p___argc",
    "__imp__o___p___wargv",
    "__imp__o___p__commode",
    "__imp__o___std_exception_copy",
    "__imp__o___std_exception_destroy",
    "__imp__o___stdio_common_vsnprintf_s",
    "__imp__o___stdio_common_vswprintf",
    "__imp__o__callnewh",
    "__imp__o__cexit",
    "__imp__o__configthreadlocale",
    "__imp__o__configure_wide_argv",
    "__imp__o__crt_atexit",
    "__imp__o__errno",
    "__imp__o__exit",
    "__imp__o__fseeki64",
    "__imp__o__get_initial_wide_environment",
    "__imp__o__initialize_onexit_table",
    "__imp__o__initialize_wide_environment",
    "__imp__o__invalid_parameter_noinfo",
    "__imp__o__invalid_parameter_noinfo_noreturn",
    "__imp__o__lock_file",
    "__imp__o__purecall",
    "__imp__o__recalloc",
    "__imp__o__register_onexit_function",
    "__imp__o__seh_filter_exe",
    "__imp__o__set_app_type",
    "__imp__o__set_fmode",
    "__imp__o__set_new_mode",
    "__imp__o__unlock_file",
    "__imp__o__wcsicmp",
    "__imp__o__wcsnicmp",
    "__imp__o_calloc",
    "__imp__o_exit",
    "__imp__o_fclose",
    "__imp__o_fflush",
    "__imp__o_fgetc",
    "__imp__o_fgetpos",
    "__imp__o_fgetwc",
    "__imp__o_fputwc",
    "__imp__o_free",
    "__imp__o_fsetpos",
    "__imp__o_fwrite",
    "__imp__o_malloc",
    "__imp__o_memcpy_s",
    "__imp__o_setvbuf",
    "__imp__o_terminate",
    "__imp__o_ungetc",
    "__imp__o_ungetwc",
    "__imp__purecall",
    "__imp__recalloc",
    "__imp__register_onexit_function",
    "__imp__register_thread_local_exe_atexit_callback",
    "__imp__seh_filter_exe",
    "__imp__set_app_type",
    "__imp__set_fmode",
    "__imp__set_new_mode",
    "__imp__time64",
    "__imp__unlock_file",
    "__imp__wcsicmp",
    "__imp__wcsnicmp",
    "__imp_calloc",
    "__imp_exit",
    "__imp_fclose",
    "__imp_fflush",
    "__imp_fgetc",
    "__imp_fgetpos",
    "__imp_fgetwc",
    "__imp_fputwc",
    "__imp_free",
    "__imp_fsetpos",
    "__imp_fwrite",
    "__imp_malloc",
    "__imp_memcpy",
    "__imp_memcpy_s",
    "__imp_memmove",
    "__imp_memset",
    "__imp_setvbuf",
    "__imp_sqlite3_close",
    "__imp_sqlite3_column_blob",
    "__imp_sqlite3_column_bytes",
    "__imp_sqlite3_column_int64",
    "__imp_sqlite3_column_text16",
    "__imp_sqlite3_finalize",
    "__imp_sqlite3_open16",
    "__imp_sqlite3_prepare_v2",
    "__imp_sqlite3_step",
    "__imp_terminate",
    "__imp_ungetc",
    "__imp_ungetwc",
    "__isa_available",
    "__isa_available_init",
    "__isa_enabled",
    "__local_stdio_printf_options",
    "__local_stdio_scanf_options",
    "__memcpy_nt_iters",
    "__p___argc",
    "__p___wargv",
    "__p__commode",
    "__raise_securityfailure",
    "__real@3ff0000000000000",
    "__report_gsfailure",
    "__rtc_iaa",
    "__rtc_izz",
    "__rtc_taa",
    "__rtc_tzz",
    "__scrt_acquire_startup_lock",
    "__scrt_current_native_startup_state",
    "__scrt_debugger_hook_flag",
    "__scrt_exe_initialize_mta",
    "__scrt_fastfail",
    "__scrt_get_dyn_tls_dtor_callback",
    "__scrt_get_dyn_tls_init_callback",
    "__scrt_initialize_crt",
    "__scrt_initialize_default_local_stdio_options",
    "__scrt_initialize_mta",
    "__scrt_initialize_onexit_tables",
    "__scrt_initialize_winrt",
    "__scrt_is_managed_app",
    "__scrt_is_nonwritable_in_current_image",
    "__scrt_is_ucrt_dll_in_use",
    "__scrt_native_startup_lock",
    "__scrt_release_startup_lock",
    "__scrt_set_unhandled_exception_filter",
    "__scrt_stdio_legacy_msvcrt_compatibility",
    "__scrt_stub_for_acrt_initialize",
    "__scrt_stub_for_acrt_uninitialize",
    "__scrt_stub_for_initialize_mta",
    "__scrt_ucrt_dll_is_in_use",
    "__scrt_unhandled_exception_filter",
    "__scrt_uninitialize_crt",
    "__security_check_cookie",
    "__security_cookie",
    "__security_cookie_complement",
    "__security_init_cookie",
    "__std_exception_copy",
    "__std_exception_destroy",
    "__std_terminate",
    "__stdio_common_vsnprintf_s",
    "__stdio_common_vswprintf",
    "__vcrt_initialize",
    "__vcrt_uninitialize",
    "__xc_a",
    "__xc_z",
    "__xi_a",
    "__xi_z",
    "__xl_a",
    "__xl_z",
    "__xmm@00000000000000070000000000000000",
    "__xmm@000000000000000f0000000000000000",
    "__xp_a",
    "__xp_z",
    "__xt_a",
    "__xt_z",
    "_alloca_probe",
    "_c_exit",
    "_callnewh",
    "_cexit",
    "_configthreadlocale",
    "_configure_wide_argv",
    "_crt_atexit",
    "_exit",
    "_get_initial_wide_environment",
    "_get_startup_argv_mode",
    "_get_startup_commit_mode",
    "_get_startup_file_mode",
    "_get_startup_new_mode",
    "_get_startup_thread_locale_mode",
    "_guard_check_icall_nop",
    "_guard_dispatch_icall_nop",
    "_initialize_denormal_control",
    "_initialize_invalid_parameter_handler",
    "_initialize_onexit_table",
    "_initialize_wide_environment",
    "_initterm",
    "_initterm_e",
    "_invalid_parameter_noinfo",
    "_load_config_used",
    "_o___p___argc",
    "_o___p___wargv",
    "_o___p__commode",
    "_o___std_exception_copy",
    "_o___std_exception_destroy",
    "_o___stdio_common_vsnprintf_s",
    "_o___stdio_common_vswprintf",
    "_o__callnewh",
    "_o__cexit",
    "_o__configthreadlocale",
    "_o__configure_wide_argv",
    "_o__crt_atexit",
    "_o__exit",
    "_o__get_initial_wide_environment",
    "_o__initialize_onexit_table",
    "_o__initialize_wide_environment",
    "_o__invalid_parameter_noinfo",
    "_o__purecall",
    "_o__register_onexit_function",
    "_o__seh_filter_exe",
    "_o__set_app_type",
    "_o__set_fmode",
    "_o__set_new_mode",
    "_o_exit",
    "_o_free",
    "_o_malloc",
    "_o_memcpy_s",
    "_o_terminate",
    "_onexit",
    "_purecall",
    "_register_onexit_function",
    "_register_thread_local_exe_atexit_callback",
    "_seh_filter_exe",
    "_set_app_type",
    "_set_fmode",
    "_set_new_mode",
    "_should_initialize_environment",
    "_tls_end",
    "_tls_index",
    "_tls_start",
    "_tls_used",
    "_vsnprintf_s",
    "_vsnwprintf",
    "atexit",
    "exit",
    "free",
    "g_header_init_InitializeResultExceptions",
    "g_header_init_InitializeResultHeader",
    "g_header_init_WilInitialize_ResultMacros_DesktopOrSystem",
    "g_pfnResultLoggingCallback",
    "g_pfnThrowPlatformException",
    "malloc",
    "memcpy",
    "memcpy_s",
    "memmove",
    "memset",
    "terminate",
    "wmain",
    "wmainCRTStartup",
    "\u007fCRYPT32_NULL_THUNK_DATA",
    "\u007fWININET_NULL_THUNK_DATA",
    "\u007fapi-ms-win-core-com-l1-1-0_NULL_THUNK_DATA",
    "\u007fapi-ms-win-core-debug-l1-1-0_NULL_THUNK_DATA",
    "\u007fapi-ms-win-core-errorhandling-l1-1-0_NULL_THUNK_DATA",
    "\u007fapi-ms-win-core-file-l1-1-0_NULL_THUNK_DATA",
    "\u007fapi-ms-win-core-file-l1-2-0_NULL_THUNK_DATA",
    "\u007fapi-ms-win-core-file-l2-1-2_NULL_THUNK_DATA",
    "\u007fapi-ms-win-core-handle-l1-1-0_NULL_THUNK_DATA",
    "\u007fapi-ms-win-core-heap-l1-1-0_NULL_THUNK_DATA",
    "\u007fapi-ms-win-core-heap-l2-1-0_NULL_THUNK_DATA",
    "\u007fapi-ms-win-core-interlocked-l1-1-0_NULL_THUNK_DATA",
    "\u007fapi-ms-win-core-libraryloader-l1-2-0_NULL_THUNK_DATA",
    "\u007fapi-ms-win-core-localization-l1-2-0_NULL_THUNK_DATA",
    "\u007fapi-ms-win-core-path-l1-1-0_NULL_THUNK_DATA",
    "\u007fapi-ms-win-core-processthreads-l1-1-0_NULL_THUNK_DATA",
    "\u007fapi-ms-win-core-processthreads-l1-1-1_NULL_THUNK_DATA",
    "\u007fapi-ms-win-core-profile-l1-1-0_NULL_THUNK_DATA",
    "\u007fapi-ms-win-core-rtlsupport-l1-1-0_NULL_THUNK_DATA",
    "\u007fapi-ms-win-core-string-l1-1-0_NULL_THUNK_DATA",
    "\u007fapi-ms-win-core-synch-l1-1-0_NULL_THUNK_DATA",
    "\u007fapi-ms-win-core-sysinfo-l1-1-0_NULL_THUNK_DATA",
    "\u007fapi-ms-win-core-winrt-l1-1-0_NULL_THUNK_DATA",
    "\u007fapi-ms-win-core-winrt-string-l1-1-0_NULL_THUNK_DATA",
    "\u007fapi-ms-win-crt-private-l1-1-0_NULL_THUNK_DATA",
    "\u007fapi-ms-win-crt-runtime-l1-1-0_NULL_THUNK_DATA",
    "\u007fapi-ms-win-crt-string-l1-1-0_NULL_THUNK_DATA",
    "\u007fapi-ms-win-crt-time-l1-1-0_NULL_THUNK_DATA",
    "\u007fapi-ms-win-eventing-provider-l1-1-0_NULL_THUNK_DATA",
    "\u007fapi-ms-win-security-base-l1-1-0_NULL_THUNK_DATA",
    "\u007fapi-ms-win-shell-shellfolders-l1-1-0_NULL_THUNK_DATA",
    "\u007fiertutil_NULL_THUNK_DATA",
    "\u007fmsIso_NULL_THUNK_DATA",
    "\u007fmsvcp_win_NULL_THUNK_DATA",
    "\u007fwinsqlite3_NULL_THUNK_DATA"
  ],
  "hash": "TODO"
}